
bin/axpy_vector.exe:	file format ELF64-x86-64

Contents of section .interp:
 0318 2f6c6962 36342f6c 642d6c69 6e75782d  /lib64/ld-linux-
 0328 7838362d 36342e73 6f2e3200           x86-64.so.2.
Contents of section .note.gnu.property:
 0338 04000000 10000000 05000000 474e5500  ............GNU.
 0348 020000c0 04000000 03000000 00000000  ................
Contents of section .note.gnu.build-id:
 0358 04000000 14000000 03000000 474e5500  ............GNU.
 0368 92a6ba0e c0379aec 0bf4fb00 710393e6  .....7......q...
 0378 362847e7                             6(G.
Contents of section .note.ABI-tag:
 037c 04000000 10000000 01000000 474e5500  ............GNU.
 038c 00000000 03000000 02000000 00000000  ................
Contents of section .gnu.hash:
 03a0 02000000 0c000000 01000000 06000000  ................
 03b0 00008100 00000000 0c000000 00000000  ................
 03c0 d165ce6d                             .e.m
Contents of section .dynsym:
 03c8 00000000 00000000 00000000 00000000  ................
 03d8 00000000 00000000 6a000000 12000000  ........j.......
 03e8 00000000 00000000 00000000 00000000  ................
 03f8 91000000 20000000 00000000 00000000  .... ...........
 0408 00000000 00000000 18000000 12000000  ................
 0418 00000000 00000000 00000000 00000000  ................
 0428 1d000000 12000000 00000000 00000000  ................
 0438 00000000 00000000 3c000000 12000000  ........<.......
 0448 00000000 00000000 00000000 00000000  ................
 0458 58000000 12000000 00000000 00000000  X...............
 0468 00000000 00000000 ad000000 20000000  ............ ...
 0478 00000000 00000000 00000000 00000000  ................
 0488 2e000000 12000000 00000000 00000000  ................
 0498 00000000 00000000 35000000 12000000  ........5.......
 04a8 00000000 00000000 00000000 00000000  ................
 04b8 0b000000 12000000 00000000 00000000  ................
 04c8 00000000 00000000 bc000000 20000000  ............ ...
 04d8 00000000 00000000 00000000 00000000  ................
 04e8 49000000 22000000 00000000 00000000  I..."...........
 04f8 00000000 00000000                    ........
Contents of section .dynstr:
 0500 006c6962 632e736f 2e36005f 5f707269  .libc.so.6.__pri
 0510 6e74665f 63686b00 70757473 005f5f73  ntf_chk.puts.__s
 0520 7461636b 5f63686b 5f666169 6c007374  tack_chk_fail.st
 0530 72746f6c 006d616c 6c6f6300 67657474  rtol.malloc.gett
 0540 696d656f 66646179 005f5f63 78615f66  imeofday.__cxa_f
 0550 696e616c 697a6500 5f5f6c69 62635f73  inalize.__libc_s
 0560 74617274 5f6d6169 6e006672 65650047  tart_main.free.G
 0570 4c494243 5f322e33 2e340047 4c494243  LIBC_2.3.4.GLIBC
 0580 5f322e34 00474c49 42435f32 2e322e35  _2.4.GLIBC_2.2.5
 0590 005f4954 4d5f6465 72656769 73746572  ._ITM_deregister
 05a0 544d436c 6f6e6554 61626c65 005f5f67  TMCloneTable.__g
 05b0 6d6f6e5f 73746172 745f5f00 5f49544d  mon_start__._ITM
 05c0 5f726567 69737465 72544d43 6c6f6e65  _registerTMClone
 05d0 5461626c 6500                        Table.
Contents of section .gnu.version:
 05d6 00000200 00000200 03000200 02000000  ................
 05e6 02000200 04000000 0200               ..........
Contents of section .gnu.version_r:
 05f0 01000300 01000000 10000000 00000000  ................
 0600 74196909 00000400 6f000000 10000000  t.i.....o.......
 0610 1469690d 00000300 7b000000 10000000  .ii.....{.......
 0620 751a6909 00000200 85000000 00000000  u.i.............
Contents of section .rela.dyn:
 0630 883d0000 00000000 08000000 00000000  .=..............
 0640 80170000 00000000 903d0000 00000000  .........=......
 0650 08000000 00000000 40170000 00000000  ........@.......
 0660 08400000 00000000 08000000 00000000  .@..............
 0670 08400000 00000000 d83f0000 00000000  .@.......?......
 0680 06000000 02000000 00000000 00000000  ................
 0690 e03f0000 00000000 06000000 06000000  .?..............
 06a0 00000000 00000000 e83f0000 00000000  .........?......
 06b0 06000000 07000000 00000000 00000000  ................
 06c0 f03f0000 00000000 06000000 0b000000  .?..............
 06d0 00000000 00000000 f83f0000 00000000  .........?......
 06e0 06000000 0c000000 00000000 00000000  ................
Contents of section .rela.plt:
 06f0 a03f0000 00000000 07000000 01000000  .?..............
 0700 00000000 00000000 a83f0000 00000000  .........?......
 0710 07000000 03000000 00000000 00000000  ................
 0720 b03f0000 00000000 07000000 04000000  .?..............
 0730 00000000 00000000 b83f0000 00000000  .........?......
 0740 07000000 05000000 00000000 00000000  ................
 0750 c03f0000 00000000 07000000 08000000  .?..............
 0760 00000000 00000000 c83f0000 00000000  .........?......
 0770 07000000 09000000 00000000 00000000  ................
 0780 d03f0000 00000000 07000000 0a000000  .?..............
 0790 00000000 00000000                    ........
Contents of section .init:
 1000 f30f1efa 4883ec08 488b05d9 2f000048  ....H...H.../..H
 1010 85c07402 ffd04883 c408c3             ..t...H....
Contents of section .plt:
 1020 ff356a2f 0000f2ff 256b2f00 000f1f00  .5j/....%k/.....
 1030 f30f1efa 68000000 00f2e9e1 ffffff90  ....h...........
 1040 f30f1efa 68010000 00f2e9d1 ffffff90  ....h...........
 1050 f30f1efa 68020000 00f2e9c1 ffffff90  ....h...........
 1060 f30f1efa 68030000 00f2e9b1 ffffff90  ....h...........
 1070 f30f1efa 68040000 00f2e9a1 ffffff90  ....h...........
 1080 f30f1efa 68050000 00f2e991 ffffff90  ....h...........
 1090 f30f1efa 68060000 00f2e981 ffffff90  ....h...........
Contents of section .plt.got:
 10a0 f30f1efa f2ff254d 2f00000f 1f440000  ......%M/....D..
Contents of section .plt.sec:
 10b0 f30f1efa f2ff25e5 2e00000f 1f440000  ......%......D..
 10c0 f30f1efa f2ff25dd 2e00000f 1f440000  ......%......D..
 10d0 f30f1efa f2ff25d5 2e00000f 1f440000  ......%......D..
 10e0 f30f1efa f2ff25cd 2e00000f 1f440000  ......%......D..
 10f0 f30f1efa f2ff25c5 2e00000f 1f440000  ......%......D..
 1100 f30f1efa f2ff25bd 2e00000f 1f440000  ......%......D..
 1110 f30f1efa f2ff25b5 2e00000f 1f440000  ......%......D..
Contents of section .text:
 1120 f30f1efa 4c8d5424 084883e4 c041ff72  ....L.T$.H...A.r
 1130 f8554889 e5415741 564989f6 31f64155  .UH..AWAVI..1.AU
 1140 4189fd41 544c8d65 b041524c 89e75348  A..ATL.e.ARL..SH
 1150 83ec4064 488b0425 28000000 488945c8  ..@dH..%(...H.E.
 1160 31c0e879 ffffff48 695db040 420f0048  1..y...Hi].@B..H
 1170 035db841 83fd020f 84830400 00bf00c0  .].A............
 1180 030041be 00780000 e873ffff ffbf00c0  ..A..x...s......
 1190 03004989 c5e866ff ffffbf00 c0030049  ..I...f........I
 11a0 89c7e859 ffffffc7 45a80078 0000b900  ...Y....E..x....
 11b0 78000048 8945a062 f1fd4828 057f0f00  x..H.E.b..H(....
 11c0 004c89e8 498d54cd 000f1f80 00000000  .L..I.T.........
 11d0 62f1fd48 11004883 c0404839 d075f148  b..H..H..@H9.u.H
 11e0 89ca4883 e2f889d0 4839ca0f 847b0400  ..H.....H9...{..
 11f0 00c5fb10 0dc70f00 004863d0 c4c17b11  .........Hc...{.
 1200 4cd5008d 50014863 d24939d6 7e60c4c1  L...P.Hc.I9.~`..
 1210 7b114cd5 008d5002 4863d249 39d67e4e  {.L...P.Hc.I9.~N
 1220 c4c17b11 4cd5008d 50034863 d24939d6  ..{.L...P.Hc.I9.
 1230 7e3cc4c1 7b114cd5 008d5004 4863d249  ~<..{.L...P.Hc.I
 1240 39d67e2a c4c17b11 4cd5008d 50054863  9.~*..{.L...P.Hc
 1250 d24939d6 7e1883c0 06c4c17b 114cd500  .I9.~......{.L..
 1260 48984939 c67e07c4 c17b114c c5004d85  H.I9.~...{.L..M.
 1270 f6b90100 0000490f 4fce4983 fe070f8e  ......I.O.I.....
 1280 01040000 62f1fd48 2805f20e 00004889  ....b..H(.....H.
 1290 ca4c89f8 48c1ea03 48c1e206 4c01fa90  .L..H...H...L...
 12a0 62f1fd48 11004883 c0404839 d075f148  b..H..H..@H9.u.H
 12b0 89ca4883 e2f889d0 4839ca0f 84370300  ..H.....H9...7..
 12c0 00c5fb10 05ff0e00 004863d0 c4c17b11  .........Hc...{.
 12d0 04d78d50 014863d2 4c39f20f 8d170300  ...P.Hc.L9......
 12e0 00c4c17b 1104d78d 50024863 d24c39f2  ...{....P.Hc.L9.
 12f0 0f8d0203 0000c4c1 7b1104d7 8d500348  ........{....P.H
 1300 63d24c39 f20f8ded 020000c4 c17b1104  c.L9.........{..
 1310 d78d5004 4863d24c 39f20f8d d8020000  ..P.Hc.L9.......
 1320 c4c17b11 04d78d50 054863d2 4c39f20f  ..{....P.Hc.L9..
 1330 8dc30200 0083c006 c4c17b11 04d74898  ..........{...H.
 1340 4c39f00f 8daf0200 00c4c17b 1104c7c5  L9.........{....
 1350 f87731f6 4c89e7c5 fb114d98 e87ffdff  .w1.L.....M.....
 1360 ffc5e057 dbbf0100 0000488d 359f0c00  ...W......H.5...
 1370 00486945 b040420f 00480345 b84829d8  .HiE.@B..H.E.H).
 1380 c4e1e22a c0b80100 0000c5fa 5e05720d  ...*........^.r.
 1390 0000c5fa 5ac0e875 fdffff4c 89f2bf01  ....Z..u...L....
 13a0 00000031 c0488d35 b40c0000 e85ffdff  ...1.H.5....._..
 13b0 ff31f64c 89e7e825 fdffff8b 45a84869  .1.L...%....E.Hi
 13c0 5db04042 0f004803 5db8c5fb 104d9885  ].@B..H.]....M..
 13d0 c07e2f8b 55a831c0 c1ea0348 c1e20690  .~/.U.1....H....
 13e0 62d1fd48 10540500 62d1ed48 58040762  b..H.T..b..HX..b
 13f0 d1fd4811 04074883 c0404839 d075e1c5  ..H...H..@H9.u..
 1400 f87731d2 488d357d 0c0000bf 01000000  .w1.H.5}........
 1410 31c0c5fb 114d98e8 f4fcffff 31d2488d  1....M......1.H.
 1420 358b0c00 0031c0bf 01000000 e8dffcff  5....1..........
 1430 ff31f64c 89e7e8a5 fcffffc5 d857e4bf  .1.L.........W..
 1440 01000000 488d35db 0b000048 6945b040  ....H.5....HiE.@
 1450 420f0048 0345b848 29d8c4e1 da2ac0b8  B..H.E.H)....*..
 1460 01000000 c5fa5e05 980c0000 c5fa5ac0  ......^.......Z.
 1470 e89bfcff ff8b55a8 488b75a0 4c89ffe8  ......U.H.u.L...
 1480 9c060000 4d85f6c5 fb104d98 7e544a8d  ....M.....M.~TJ.
 1490 14f50000 00004c89 e862f1fd 4828059d  ......L..b..H(..
 14a0 0c000049 8d4c1500 0f1f8400 00000000  ...I.L..........
 14b0 62f1fd48 11004883 c0404839 c875f162  b..H..H..@H9.u.b
 14c0 f1fd4828 05b70c00 004c89f8 4c01fa90  ..H(.....L..L...
 14d0 62f1fd48 11004883 c0404839 d075f1c5  b..H..H..@H9.u..
 14e0 f8774c89 f2488d35 f40b0000 bf010000  .wL..H.5........
 14f0 0031c0c5 fb114d98 e813fcff ff31f64c  .1....M......1.L
 1500 89e7e8d9 fbffff8b 55a84c89 fe4c89ef  ........U.L..L..
 1510 c5fb104d 9848695d b040420f 0048035d  ...M.Hi].@B..H.]
 1520 b8c5f928 c1e8a602 000031d2 488d3555  ...(......1.H.5U
 1530 0b000031 c0bf0100 0000e8d1 fbffff31  ...1...........1
 1540 d2488d35 680b0000 31c0bf01 000000e8  .H.5h...1.......
 1550 bcfbffff 31f64c89 e7e882fb ffffc5d0  ....1.L.........
 1560 57edbf01 00000048 8d35d10a 00004869  W......H.5....Hi
 1570 45b04042 0f004803 45b84829 d8c4e1d2  E.@B..H.E.H)....
 1580 2ac0b801 000000c5 fa5e0575 0b0000c5  *........^.u....
 1590 fa5ac0e8 78fbffff 488d3dba 0a0000e8  .Z..x...H.=.....
 15a0 1cfbffff 488b5da0 4c89f24c 89ff4889  ....H.].L..L..H.
 15b0 dee8ea05 00004c89 efe8f2fa ffff4c89  ......L.......L.
 15c0 ffe8eafa ffff4889 dfe8e2fa ffff488b  ......H.......H.
 15d0 45c86448 33042528 0000000f 85ab0000  E.dH3.%(........
 15e0 004883c4 4031c05b 415a415c 415d415e  .H..@1.[AZA\A]A^
 15f0 415f5d49 8d62f8c3 c5f877e9 52fdffff  A_]I.b....w.R...
 1600 498b7e08 ba0a0000 0031f6e8 e0faffff  I.~......1......
 1610 4889c749 89c648c1 e70d49c1 e60a4889  H..I..H...I...H.
 1620 7da8e8d9 faffff48 8b7da849 89c5e8cd  }......H.}.I....
 1630 faffff48 8b7da849 89c7e8c1 faffff44  ...H.}.I.......D
 1640 8975a8c5 fb100d75 0b000048 8945a04d  .u.....u...H.E.M
 1650 85f60f8e fafcffff 4c89f149 83fe070f  ........L..I....
 1660 8f52fbff ff31c0e9 85fbffff 4d85f6b9  .R...1......M...
 1670 01000000 c5fb100d 440b0000 490f4fce  ........D...I.O.
 1680 e9fffbff ff31c0e9 35fcffff e83ffaff  .....1..5....?..
 1690 ff662e0f 1f840000 0000000f 1f440000  .f...........D..
 16a0 f30f1efa 31ed4989 d15e4889 e24883e4  ....1.I..^H..H..
 16b0 f050544c 8d054606 0000488d 0dcf0500  .PTL..F...H.....
 16c0 00488d3d 58faffff ff151229 0000f490  .H.=X......)....
 16d0 488d3d39 29000048 8d053229 00004839  H.=9)..H..2)..H9
 16e0 f8741548 8b05ee28 00004885 c07409ff  .t.H...(..H..t..
 16f0 e00f1f80 00000000 c30f1f80 00000000  ................
 1700 488d3d09 29000048 8d350229 00004829  H.=.)..H.5.)..H)
 1710 fe4889f0 48c1ee3f 48c1f803 4801c648  .H..H..?H...H..H
 1720 d1fe7414 488b05c5 28000048 85c07408  ..t.H...(..H..t.
 1730 ffe0660f 1f440000 c30f1f80 00000000  ..f..D..........
 1740 f30f1efa 803dc528 00000075 2b554883  .....=.(...u+UH.
 1750 3da22800 00004889 e5740c48 8b3da628  =.(...H..t.H.=.(
 1760 0000e839 f9ffffe8 64ffffff c6059d28  ...9....d......(
 1770 0000015d c30f1f00 c30f1f80 00000000  ...]............
 1780 f30f1efa e977ffff ff0f1f80 00000000  .....w..........
 1790 f30f1efa 89f0c5f0 57c99931 d029d099  ........W..1.)..
 17a0 f7ffc5f3 2ac0c5f3 2acfc5fb 59c1c5fb  ....*...*...Y...
 17b0 2cc0c366 662e0f1f 84000000 00006690  ,..ff.........f.
 17c0 f30f1efa 62f2ed48 b8c1c30f 1f440000  ....b..H.....D..
 17d0 f30f1efa 89d1c5f0 57c962f2 fd4819d0  ........W.b..H..
 17e0 c1f91f89 c831d029 c8c1f803 c5f32ac8  .....1.)......*.
 17f0 c5f3590d 10080000 c5fb2cc9 85c97e60  ..Y.......,...~`
 1800 31c0660f 1f440000 62f1fd48 100cc762  1.f..D..b..H...b
 1810 f2ed48a8 0cc662f1 fd48110c c64883c0  ..H...b..H...H..
 1820 0839c17f e383e901 c1e9038d 04cd0800  .9..............
 1830 000039c2 7e224898 0f1f8400 00000000  ..9.~"H.........
 1840 c5fb100c c7c4e2f9 a90cc6c5 fb110cc6  ................
 1850 4883c001 39c27fe8 c5f877c3 0f1f4000  H...9.....w...@.
 1860 31c0ebce 662e0f1f 84000000 00006690  1...f.........f.
 1870 f30f1efa 4883ec28 31f66448 8b042528  ....H..(1.dH..%(
 1880 00000048 89442418 31c04889 e7e84ef8  ...H.D$.1.H...N.
 1890 ffff4869 04244042 0f004803 44240848  ..Hi.$@B..H.D$.H
 18a0 8b542418 64483314 25280000 00750548  .T$.dH3.%(...u.H
 18b0 83c428c3 e817f8ff ff0f1f80 00000000  ..(.............
 18c0 f30f1efa 4829fec5 f857c0c4 e1fa2ac6  ....H)...W....*.
 18d0 c5fa5e05 2c080000 c30f1f80 00000000  ..^.,...........
 18e0 f30f1efa 85d20f8e 37010000 488d4e3f  ........7...H.N?
 18f0 8d42ff48 29f94883 f97e0f86 28010000  .B.H).H..~..(...
 1900 83f8060f 861f0100 0089d162 f2fd4819  ...........b..H.
 1910 d031c0c1 e90348c1 e106660f 1f440000  .1....H...f..D..
 1920 62f1fd48 100c0762 f2ed48a8 0c0662f1  b..H...b..H...b.
 1930 fd48110c 064883c0 404839c8 75e289d0  .H...H..@H9.u...
 1940 83e0f8f6 c2070f84 d4000000 4189c04a  ............A..J
 1950 8d0cc6c4 a17b100c c7c4e2f9 a909c5fb  .....{..........
 1960 11098d48 0139ca0f 8eb30000 004863c9  ...H.9.......Hc.
 1970 4c8d04ce c5fb100c cf8d4802 c4c2f9a9  L.........H.....
 1980 08c4c17b 110839ca 0f8e9200 00004863  ...{..9.......Hc
 1990 c94c8d04 cec5fb10 0ccf8d48 03c4c2f9  .L.........H....
 19a0 a908c4c1 7b110839 ca7e7548 63c94c8d  ....{..9.~uHc.L.
 19b0 04cec5fb 100ccf8d 4804c4c2 f9a908c4  ........H.......
 19c0 c17b1108 39ca7e58 4863c94c 8d04cec5  .{..9.~XHc.L....
 19d0 fb100ccf 8d4805c4 c2f9a908 c4c17b11  .....H........{.
 19e0 0839ca7e 3b4863c9 83c0064c 8d04cec5  .9.~;Hc....L....
 19f0 fb100ccf c4c2f9a9 08c4c17b 110839c2  ...........{..9.
 1a00 7e1e4898 488d14c6 c5fb101a c4e2e199  ~.H.H...........
 1a10 04c7c5fb 1102c5f8 77c3660f 1f440000  ........w.f..D..
 1a20 c5f877c3 0f1f4000 89c231c0 0f1f4000  ..w...@...1...@.
 1a30 c5fb100c c7c4e2f9 a90cc648 89c1c5fb  ...........H....
 1a40 110cc648 83c00148 39d175e4 c30f1f00  ...H...H9.u.....
 1a50 f30f1efa 4885f60f 8eb20000 00488d46  ....H........H.F
 1a60 ff4883f8 060f86a9 00000048 89f262f2  .H.........H..b.
 1a70 fd4819c8 4889f848 c1ea0348 c1e20648  .H..H..H...H...H
 1a80 01fa660f 1f440000 62f1fd48 11084883  ..f..D..b..H..H.
 1a90 c0404839 d075f148 89f24883 e2f889d0  .@H9.u.H..H.....
 1aa0 4839d674 6bc5f877 4863d0c5 fb1104d7  H9.tk..wHc......
 1ab0 8d500148 63d24839 d67e54c5 fb1104d7  .P.Hc.H9.~T.....
 1ac0 8d500248 63d24839 d67e44c5 fb1104d7  .P.Hc.H9.~D.....
 1ad0 8d500348 63d24839 d67e34c5 fb1104d7  .P.Hc.H9.~4.....
 1ae0 8d500448 63d24839 d67e24c5 fb1104d7  .P.Hc.H9.~$.....
 1af0 8d500548 63d24839 d67e1483 c006c5fb  .P.Hc.H9.~......
 1b00 1104d748 984839c6 7e05c5fb 1104c7c3  ...H.H9.~.......
 1b10 c5f877c3 31c0eb90 0f1f8400 00000000  ..w.1...........
 1b20 f30f1efa 85d27e76 488d4f0f 8d42ff48  ......~vH.O..B.H
 1b30 29f14883 f91e7648 83f80376 4389d131  ).H...vH...vC..1
 1b40 c0d1e948 c1e10466 0f1f8400 00000000  ...H...f........
 1b50 660f100c 070f110c 064883c0 104839c1  f........H...H9.
 1b60 75ee89d0 83e0fe83 e2017432 f20f1004  u.........t2....
 1b70 c7f20f11 04c6c366 0f1f8400 00000000  .......f........
 1b80 89c231c0 0f1f4000 f20f1004 c74889c1  ..1...@......H..
 1b90 f20f1104 c64883c0 014839ca 75eac390  .....H...H9.u...
 1ba0 f30f1efa 4885d20f 8ed20000 0041574c  ....H........AWL
 1bb0 8d3d1a06 00004156 4531f641 554989f5  .=....AVE1.AUI..
 1bc0 41544989 fc554889 d55331db 4883ec08  ATI..UH..S1.H...
 1bd0 f30f7e25 48060000 f20f101d 50060000  ..~%H.......P...
 1be0 eb0f660f 1f440000 4883c301 4839dd74  ..f..D..H...H9.t
 1bf0 6ff2410f 1014dcf2 410f104c dd00660f  o.A.....A..L..f.
 1c00 28c2f20f 5cc1660f 54c4660f 2fc376d8  (...\.f.T.f./.v.
 1c10 4889d966 0f28c248 89da4c89 febf0100  H..f.(.H..L.....
 1c20 0000b802 00000041 83c601e8 e0f4ffff  .......A........
 1c30 488b05f9 05000041 83fe64f3 0f7e25dd  H......A..d..~%.
 1c40 05000066 480f6ed8 759e4883 c4085b5d  ...fH.n.u.H...[]
 1c50 415c415d 415e415f c30f1f80 00000000  A\A]A^A_........
 1c60 4585f675 e54883c4 08488d3d 9b050000  E..u.H...H.=....
 1c70 5b5d415c 415d415e 415fe941 f4ffff48  []A\A]A^A_.A...H
 1c80 8d3d8505 0000e935 f4ffff0f 1f440000  .=.....5.....D..
 1c90 f30f1efa 41574c8d 3deb2000 00415649  ....AWL.=. ..AVI
 1ca0 89d64155 4989f541 544189fc 55488d2d  ..AUI..ATA..UH.-
 1cb0 dc200000 534c29fd 4883ec08 e83ff3ff  . ..SL).H....?..
 1cc0 ff48c1fd 03741f31 db0f1f80 00000000  .H...t.1........
 1cd0 4c89f24c 89ee4489 e741ff14 df4883c3  L..L..D..A...H..
 1ce0 014839dd 75ea4883 c4085b5d 415c415d  .H9.u.H...[]A\A]
 1cf0 415e415f c366662e 0f1f8400 00000000  A^A_.ff.........
 1d00 f30f1efa c3                          .....
Contents of section .fini:
 1d08 f30f1efa 4883ec08 4883c408 c3        ....H...H....
Contents of section .rodata:
 2000 01000200 00000000 00000000 00002040  .............. @
 2010 696e6974 5f766563 746f7220 74696d65  init_vector time
 2020 3a202566 0a006178 70795f72 65666572  : %f..axpy_refer
 2030 656e6365 2074696d 653a2025 660a0061  ence time: %f..a
 2040 7870795f 696e7472 696e7369 63732074  xpy_intrinsics t
 2050 696d653a 2025660a 00646f6e 65000000  ime: %f..done...
 2060 646f696e 67207265 66657265 6e636520  doing reference 
 2070 61787079 202c2076 6563746f 72207369  axpy , vector si
 2080 7a652025 6c640a00 2d435352 2020204e  ze %ld..-CSR   N
 2090 554d4245 52204f46 20455845 43204359  UMBER OF EXEC CY
 20a0 434c4553 203a256c 750a0000 00000000  CLES :%lu.......
 20b0 2d435352 2020204e 554d4245 52204f46  -CSR   NUMBER OF
 20c0 20494e53 54525543 54494f4e 53204558   INSTRUCTIONS EX
 20d0 45435554 4544203a 256c750a 00000000  ECUTED :%lu.....
 20e0 646f696e 67207665 63746f72 20617870  doing vector axp
 20f0 792c2076 6563746f 72207369 7a652025  y, vector size %
 2100 6c640a00 00247449 00000000 00000000  ld...$tI........
 2110 00000000 00000000 00000000 00000000  ................
 2120 00000000 00000000 00000000 00000000  ................
 2130 00000000 00000000 00000000 00000000  ................
 2140 00000000 0000f03f 00000000 0000f03f  .......?.......?
 2150 00000000 0000f03f 00000000 0000f03f  .......?.......?
 2160 00000000 0000f03f 00000000 0000f03f  .......?.......?
 2170 00000000 0000f03f 00000000 0000f03f  .......?.......?
 2180 00000000 00000040 00000000 00000040  .......@.......@
 2190 00000000 00000040 00000000 00000040  .......@.......@
 21a0 00000000 00000040 00000000 00000040  .......@.......@
 21b0 00000000 00000040 00000000 00000040  .......@.......@
 21c0 00000000 0000f03f 00000000 00000040  .......?.......@
 21d0 795b256c 645d3d25 2e313666 20213d20  y[%ld]=%.16f != 
 21e0 795f7265 665b256c 645d3d25 2e313666  y_ref[%ld]=%.16f
 21f0 2020494e 434f5252 45435420 52455355    INCORRECT RESU
 2200 4c542021 21212120 0a200052 6573756c  LT !!!! . .Resul
 2210 74206f6b 20212121 00000000 00000000  t ok !!!........
 2220 ffffffff ffffff7f 00000000 00000000  ................
 2230 48afbc9a f2d77a3e                    H.....z>
Contents of section .eh_frame_hdr:
 2238 011b033b 8c000000 10000000 e8edffff  ...;............
 2248 c0000000 68eeffff e8000000 78eeffff  ....h.......x...
 2258 00010000 e8eeffff b0010000 68f4ffff  ............h...
 2268 a8000000 58f5ffff 18010000 88f5ffff  ....X...........
 2278 2c010000 98f5ffff 40010000 38f6ffff  ,.......@...8...
 2288 58010000 88f6ffff 74010000 a8f6ffff  X.......t.......
 2298 88010000 18f8ffff 9c010000 e8f8ffff  ................
 22a8 00020000 68f9ffff 14020000 58faffff  ....h.......X...
 22b8 80020000 c8faffff c8020000           ............
Contents of section .eh_frame:
 22c8 14000000 00000000 017a5200 01781001  .........zR..x..
 22d8 1b0c0708 90010000 14000000 1c000000  ................
 22e8 b8f3ffff 2f000000 00440710 00000000  ..../....D......
 22f8 24000000 34000000 20edffff 80000000  $...4... .......
 2308 000e1046 0e184a0f 0b770880 003f1a3a  ...F..J..w...?.:
 2318 2a332422 00000000 14000000 5c000000  *3$"........\...
 2328 78edffff 10000000 00000000 00000000  x...............
 2338 14000000 74000000 70edffff 70000000  ....t...p...p...
 2348 00000000 00000000 10000000 8c000000  ................
 2358 38f4ffff 23000000 00000000 10000000  8...#...........
 2368 a0000000 54f4ffff 0b000000 00000000  ....T...........
 2378 14000000 b4000000 50f4ffff 94000000  ........P.......
 2388 00000000 00000000 18000000 cc000000  ................
 2398 d8f4ffff 49000000 00480e30 7b0a0e08  ....I....H.0{...
 23a8 410b0000 10000000 e8000000 0cf5ffff  A...............
 23b8 19000000 00000000 10000000 fc000000  ................
 23c8 18f5ffff 6d010000 00000000 10000000  ....m...........
 23d8 10010000 74f6ffff c8000000 00000000  ....t...........
 23e8 4c000000 24010000 30edffff 71050000  L...$...0...q...
 23f8 00490c0a 00491006 02760047 100f0276  .I...I...v.G...v
 2408 78100e02 76704710 0d027668 45100c02  x...vpG...vhE...
 2418 7660460f 03765806 48100302 76500397  v`F..vX.H...vP..
 2428 040a0c0a 004d0c07 08410b00 00000000  .....M...A......
 2438 10000000 74010000 e0f6ffff 7f000000  ....t...........
 2448 00000000 68000000 88010000 4cf7ffff  ....h.......L...
 2458 eb000000 004f0e10 8f02490e 188e0345  .....O....I....E
 2468 0e208d04 450e288c 05440e30 8606440e  . ..E.(..D.0..D.
 2478 38830746 0e40027e 0a0e3841 0e30410e  8..F.@.~..8A.0A.
 2488 28420e20 420e1842 0e10420e 08480b49  (B. B..B..B..H.I
 2498 0e3848c3 0e3041c6 0e2842cc 0e2042cd  .8H..0A..(B.. B.
 24a8 0e1842ce 0e1042cf 0e080000 00000000  ..B...B.........
 24b8 44000000 f4010000 d0f7ffff 65000000  D...........e...
 24c8 00460e10 8f02490e 188e0345 0e208d04  .F....I....E. ..
 24d8 450e288c 05440e30 8606480e 38830747  E.(..D.0..H.8..G
 24e8 0e406e0e 38410e30 410e2842 0e20420e  .@n.8A.0A.(B. B.
 24f8 18420e10 420e0800 10000000 3c020000  .B..B.......<...
 2508 f8f7ffff 05000000 00000000 00000000  ................
Contents of section .init_array:
 3d88 80170000 00000000                    ........
Contents of section .fini_array:
 3d90 40170000 00000000                    @.......
Contents of section .dynamic:
 3d98 01000000 00000000 01000000 00000000  ................
 3da8 0c000000 00000000 00100000 00000000  ................
 3db8 0d000000 00000000 081d0000 00000000  ................
 3dc8 19000000 00000000 883d0000 00000000  .........=......
 3dd8 1b000000 00000000 08000000 00000000  ................
 3de8 1a000000 00000000 903d0000 00000000  .........=......
 3df8 1c000000 00000000 08000000 00000000  ................
 3e08 f5feff6f 00000000 a0030000 00000000  ...o............
 3e18 05000000 00000000 00050000 00000000  ................
 3e28 06000000 00000000 c8030000 00000000  ................
 3e38 0a000000 00000000 d6000000 00000000  ................
 3e48 0b000000 00000000 18000000 00000000  ................
 3e58 15000000 00000000 00000000 00000000  ................
 3e68 03000000 00000000 883f0000 00000000  .........?......
 3e78 02000000 00000000 a8000000 00000000  ................
 3e88 14000000 00000000 07000000 00000000  ................
 3e98 17000000 00000000 f0060000 00000000  ................
 3ea8 07000000 00000000 30060000 00000000  ........0.......
 3eb8 08000000 00000000 c0000000 00000000  ................
 3ec8 09000000 00000000 18000000 00000000  ................
 3ed8 1e000000 00000000 08000000 00000000  ................
 3ee8 fbffff6f 00000000 01000008 00000000  ...o............
 3ef8 feffff6f 00000000 f0050000 00000000  ...o............
 3f08 ffffff6f 00000000 01000000 00000000  ...o............
 3f18 f0ffff6f 00000000 d6050000 00000000  ...o............
 3f28 f9ffff6f 00000000 03000000 00000000  ...o............
 3f38 00000000 00000000 00000000 00000000  ................
 3f48 00000000 00000000 00000000 00000000  ................
 3f58 00000000 00000000 00000000 00000000  ................
 3f68 00000000 00000000 00000000 00000000  ................
 3f78 00000000 00000000 00000000 00000000  ................
Contents of section .got:
 3f88 983d0000 00000000 00000000 00000000  .=..............
 3f98 00000000 00000000 30100000 00000000  ........0.......
 3fa8 40100000 00000000 50100000 00000000  @.......P.......
 3fb8 60100000 00000000 70100000 00000000  `.......p.......
 3fc8 80100000 00000000 90100000 00000000  ................
 3fd8 00000000 00000000 00000000 00000000  ................
 3fe8 00000000 00000000 00000000 00000000  ................
 3ff8 00000000 00000000                    ........
Contents of section .data:
 4000 00000000 00000000 08400000 00000000  .........@......
Contents of section .bss:
<skipping contents of bss section at [4010, 4018)>
Contents of section .comment:
 0000 4743433a 20285562 756e7475 20392e33  GCC: (Ubuntu 9.3
 0010 2e302d31 37756275 6e747531 7e32302e  .0-17ubuntu1~20.
 0020 30342920 392e332e 3000               04) 9.3.0.
Contents of section .symtab:
 0000 00000000 00000000 00000000 00000000  ................
 0010 00000000 00000000 00000000 03000100  ................
 0020 18030000 00000000 00000000 00000000  ................
 0030 00000000 03000200 38030000 00000000  ........8.......
 0040 00000000 00000000 00000000 03000300  ................
 0050 58030000 00000000 00000000 00000000  X...............
 0060 00000000 03000400 7c030000 00000000  ........|.......
 0070 00000000 00000000 00000000 03000500  ................
 0080 a0030000 00000000 00000000 00000000  ................
 0090 00000000 03000600 c8030000 00000000  ................
 00a0 00000000 00000000 00000000 03000700  ................
 00b0 00050000 00000000 00000000 00000000  ................
 00c0 00000000 03000800 d6050000 00000000  ................
 00d0 00000000 00000000 00000000 03000900  ................
 00e0 f0050000 00000000 00000000 00000000  ................
 00f0 00000000 03000a00 30060000 00000000  ........0.......
 0100 00000000 00000000 00000000 03000b00  ................
 0110 f0060000 00000000 00000000 00000000  ................
 0120 00000000 03000c00 00100000 00000000  ................
 0130 00000000 00000000 00000000 03000d00  ................
 0140 20100000 00000000 00000000 00000000   ...............
 0150 00000000 03000e00 a0100000 00000000  ................
 0160 00000000 00000000 00000000 03000f00  ................
 0170 b0100000 00000000 00000000 00000000  ................
 0180 00000000 03001000 20110000 00000000  ........ .......
 0190 00000000 00000000 00000000 03001100  ................
 01a0 081d0000 00000000 00000000 00000000  ................
 01b0 00000000 03001200 00200000 00000000  ......... ......
 01c0 00000000 00000000 00000000 03001300  ................
 01d0 38220000 00000000 00000000 00000000  8"..............
 01e0 00000000 03001400 c8220000 00000000  ........."......
 01f0 00000000 00000000 00000000 03001500  ................
 0200 883d0000 00000000 00000000 00000000  .=..............
 0210 00000000 03001600 903d0000 00000000  .........=......
 0220 00000000 00000000 00000000 03001700  ................
 0230 983d0000 00000000 00000000 00000000  .=..............
 0240 00000000 03001800 883f0000 00000000  .........?......
 0250 00000000 00000000 00000000 03001900  ................
 0260 00400000 00000000 00000000 00000000  .@..............
 0270 00000000 03001a00 10400000 00000000  .........@......
 0280 00000000 00000000 00000000 03001b00  ................
 0290 00000000 00000000 00000000 00000000  ................
 02a0 01000000 0400f1ff 00000000 00000000  ................
 02b0 00000000 00000000 08000000 0400f1ff  ................
 02c0 00000000 00000000 00000000 00000000  ................
 02d0 13000000 02001000 d0160000 00000000  ................
 02e0 00000000 00000000 15000000 02001000  ................
 02f0 00170000 00000000 00000000 00000000  ................
 0300 28000000 02001000 40170000 00000000  (.......@.......
 0310 00000000 00000000 3e000000 01001a00  ........>.......
 0320 10400000 00000000 01000000 00000000  .@..............
 0330 4d000000 01001600 903d0000 00000000  M........=......
 0340 00000000 00000000 74000000 02001000  ........t.......
 0350 80170000 00000000 00000000 00000000  ................
 0360 80000000 01001500 883d0000 00000000  .........=......
 0370 00000000 00000000 9f000000 0400f1ff  ................
 0380 00000000 00000000 00000000 00000000  ................
 0390 a6000000 0400f1ff 00000000 00000000  ................
 03a0 00000000 00000000 08000000 0400f1ff  ................
 03b0 00000000 00000000 00000000 00000000  ................
 03c0 ae000000 01001400 14250000 00000000  .........%......
 03d0 00000000 00000000 00000000 0400f1ff  ................
 03e0 00000000 00000000 00000000 00000000  ................
 03f0 bc000000 00001500 903d0000 00000000  .........=......
 0400 00000000 00000000 cd000000 01001700  ................
 0410 983d0000 00000000 00000000 00000000  .=..............
 0420 d6000000 00001500 883d0000 00000000  .........=......
 0430 00000000 00000000 e9000000 00001300  ................
 0440 38220000 00000000 00000000 00000000  8"..............
 0450 fc000000 01001800 883f0000 00000000  .........?......
 0460 00000000 00000000 4b020000 02000c00  ........K.......
 0470 00100000 00000000 00000000 00000000  ................
 0480 12010000 12001000 001d0000 00000000  ................
 0490 05000000 00000000 22010000 12001000  ........".......
 04a0 a01b0000 00000000 eb000000 00000000  ................
 04b0 2e010000 12000000 00000000 00000000  ................
 04c0 00000000 00000000 40010000 20000000  ........@... ...
 04d0 00000000 00000000 00000000 00000000  ................
 04e0 f7010000 20001900 00400000 00000000  .... ....@......
 04f0 00000000 00000000 5c010000 12001000  ........\.......
 0500 501a0000 00000000 c8000000 00000000  P...............
 0510 68010000 12000000 00000000 00000000  h...............
 0520 00000000 00000000 7a010000 12001000  ........z.......
 0530 c0180000 00000000 19000000 00000000  ................
 0540 87010000 10001900 10400000 00000000  .........@......
 0550 00000000 00000000 1c010000 12021100  ................
 0560 081d0000 00000000 00000000 00000000  ................
 0570 8e010000 12000000 00000000 00000000  ................
 0580 00000000 00000000 aa010000 12000000  ................
 0590 00000000 00000000 00000000 00000000  ................
 05a0 c4010000 12001000 e0180000 00000000  ................
 05b0 6d010000 00000000 cd010000 12000000  m...............
 05c0 00000000 00000000 00000000 00000000  ................
 05d0 ec010000 12001000 70180000 00000000  ........p.......
 05e0 49000000 00000000 f5010000 10001900  I...............
 05f0 00400000 00000000 00000000 00000000  .@..............
 0600 02020000 20000000 00000000 00000000  .... ...........
 0610 00000000 00000000 11020000 12000000  ................
 0620 00000000 00000000 00000000 00000000  ................
 0630 25020000 11021900 08400000 00000000  %........@......
 0640 00000000 00000000 32020000 11001200  ........2.......
 0650 00200000 00000000 04000000 00000000  . ..............
 0660 41020000 12001000 901c0000 00000000  A...............
 0670 65000000 00000000 51020000 12000000  e.......Q.......
 0680 00000000 00000000 00000000 00000000  ................
 0690 c8000000 10001a00 18400000 00000000  .........@......
 06a0 00000000 00000000 fb010000 12001000  ................
 06b0 a0160000 00000000 2f000000 00000000  ......../.......
 06c0 65020000 10001a00 10400000 00000000  e........@......
 06d0 00000000 00000000 71020000 12001000  ........q.......
 06e0 20110000 00000000 71050000 00000000   .......q.......
 06f0 76020000 12000000 00000000 00000000  v...............
 0700 00000000 00000000 90020000 12001000  ................
 0710 d0170000 00000000 94000000 00000000  ................
 0720 a0020000 12001000 c0170000 00000000  ................
 0730 0b000000 00000000 a5020000 12001000  ................
 0740 90170000 00000000 23000000 00000000  ........#.......
 0750 b0020000 12001000 201b0000 00000000  ........ .......
 0760 7f000000 00000000 c3020000 11021900  ................
 0770 10400000 00000000 00000000 00000000  .@..............
 0780 cf020000 20000000 00000000 00000000  .... ...........
 0790 00000000 00000000 e9020000 22000000  ............"...
 07a0 00000000 00000000 00000000 00000000  ................
Contents of section .strtab:
 0000 006d6169 6e2e6300 63727473 74756666  .main.c.crtstuff
 0010 2e630064 65726567 69737465 725f746d  .c.deregister_tm
 0020 5f636c6f 6e657300 5f5f646f 5f676c6f  _clones.__do_glo
 0030 62616c5f 64746f72 735f6175 7800636f  bal_dtors_aux.co
 0040 6d706c65 7465642e 38303630 005f5f64  mpleted.8060.__d
 0050 6f5f676c 6f62616c 5f64746f 72735f61  o_global_dtors_a
 0060 75785f66 696e695f 61727261 795f656e  ux_fini_array_en
 0070 74727900 6672616d 655f6475 6d6d7900  try.frame_dummy.
 0080 5f5f6672 616d655f 64756d6d 795f696e  __frame_dummy_in
 0090 69745f61 72726179 5f656e74 72790061  it_array_entry.a
 00a0 7870792e 63007574 696c732e 63005f5f  xpy.c.utils.c.__
 00b0 4652414d 455f454e 445f5f00 5f5f696e  FRAME_END__.__in
 00c0 69745f61 72726179 5f656e64 005f4459  it_array_end._DY
 00d0 4e414d49 43005f5f 696e6974 5f617272  NAMIC.__init_arr
 00e0 61795f73 74617274 005f5f47 4e555f45  ay_start.__GNU_E
 00f0 485f4652 414d455f 48445200 5f474c4f  H_FRAME_HDR._GLO
 0100 42414c5f 4f464653 45545f54 41424c45  BAL_OFFSET_TABLE
 0110 5f005f5f 6c696263 5f637375 5f66696e  _.__libc_csu_fin
 0120 69007465 73745f72 6573756c 74006672  i.test_result.fr
 0130 65654040 474c4942 435f322e 322e3500  ee@@GLIBC_2.2.5.
 0140 5f49544d 5f646572 65676973 74657254  _ITM_deregisterT
 0150 4d436c6f 6e655461 626c6500 696e6974  MCloneTable.init
 0160 5f766563 746f7200 70757473 4040474c  _vector.puts@@GL
 0170 4942435f 322e322e 3500656c 61707365  IBC_2.2.5.elapse
 0180 645f7469 6d65005f 65646174 61005f5f  d_time._edata.__
 0190 73746163 6b5f6368 6b5f6661 696c4040  stack_chk_fail@@
 01a0 474c4942 435f322e 34006765 7474696d  GLIBC_2.4.gettim
 01b0 656f6664 61794040 474c4942 435f322e  eofday@@GLIBC_2.
 01c0 322e3500 61787079 5f726566 005f5f6c  2.5.axpy_ref.__l
 01d0 6962635f 73746172 745f6d61 696e4040  ibc_start_main@@
 01e0 474c4942 435f322e 322e3500 6765745f  GLIBC_2.2.5.get_
 01f0 74696d65 005f5f64 6174615f 73746172  time.__data_star
 0200 74005f5f 676d6f6e 5f737461 72745f5f  t.__gmon_start__
 0210 00737472 746f6c40 40474c49 42435f32  .strtol@@GLIBC_2
 0220 2e322e35 005f5f64 736f5f68 616e646c  .2.5.__dso_handl
 0230 65005f49 4f5f7374 64696e5f 75736564  e._IO_stdin_used
 0240 005f5f6c 6962635f 6373755f 696e6974  .__libc_csu_init
 0250 006d616c 6c6f6340 40474c49 42435f32  .malloc@@GLIBC_2
 0260 2e322e35 005f5f62 73735f73 74617274  .2.5.__bss_start
 0270 006d6169 6e005f5f 7072696e 74665f63  .main.__printf_c
 0280 686b4040 474c4942 435f322e 332e3400  hk@@GLIBC_2.3.4.
 0290 61787079 5f696e74 72696e73 69637300  axpy_intrinsics.
 02a0 6d616464 006c6f6f 705f626f 756e6400  madd.loop_bound.
 02b0 63617074 7572655f 7265665f 72657375  capture_ref_resu
 02c0 6c74005f 5f544d43 5f454e44 5f5f005f  lt.__TMC_END__._
 02d0 49544d5f 72656769 73746572 544d436c  ITM_registerTMCl
 02e0 6f6e6554 61626c65 005f5f63 78615f66  oneTable.__cxa_f
 02f0 696e616c 697a6540 40474c49 42435f32  inalize@@GLIBC_2
 0300 2e322e35 00                          .2.5.
Contents of section .shstrtab:
 0000 002e7379 6d746162 002e7374 72746162  ..symtab..strtab
 0010 002e7368 73747274 6162002e 696e7465  ..shstrtab..inte
 0020 7270002e 6e6f7465 2e676e75 2e70726f  rp..note.gnu.pro
 0030 70657274 79002e6e 6f74652e 676e752e  perty..note.gnu.
 0040 6275696c 642d6964 002e6e6f 74652e41  build-id..note.A
 0050 42492d74 6167002e 676e752e 68617368  BI-tag..gnu.hash
 0060 002e6479 6e73796d 002e6479 6e737472  ..dynsym..dynstr
 0070 002e676e 752e7665 7273696f 6e002e67  ..gnu.version..g
 0080 6e752e76 65727369 6f6e5f72 002e7265  nu.version_r..re
 0090 6c612e64 796e002e 72656c61 2e706c74  la.dyn..rela.plt
 00a0 002e696e 6974002e 706c742e 676f7400  ..init..plt.got.
 00b0 2e706c74 2e736563 002e7465 7874002e  .plt.sec..text..
 00c0 66696e69 002e726f 64617461 002e6568  fini..rodata..eh
 00d0 5f667261 6d655f68 6472002e 65685f66  _frame_hdr..eh_f
 00e0 72616d65 002e696e 69745f61 72726179  rame..init_array
 00f0 002e6669 6e695f61 72726179 002e6479  ..fini_array..dy
 0100 6e616d69 63002e64 61746100 2e627373  namic..data..bss
 0110 002e636f 6d6d656e 7400               ..comment.

Disassembly of section .init:

0000000000001000 _init:
    1000: f3 0f 1e fa                  	endbr64
    1004: 48 83 ec 08                  	subq	$8, %rsp
    1008: 48 8b 05 d9 2f 00 00         	movq	12249(%rip), %rax
    100f: 48 85 c0                     	testq	%rax, %rax
    1012: 74 02                        	je	2 <_init+0x16>
    1014: ff d0                        	callq	*%rax
    1016: 48 83 c4 08                  	addq	$8, %rsp
    101a: c3                           	retq

Disassembly of section .plt:

0000000000001020 .plt:
    1020: ff 35 6a 2f 00 00            	pushq	12138(%rip)
    1026: f2 ff 25 6b 2f 00 00         	repne		jmpq	*12139(%rip)
    102d: 0f 1f 00                     	nopl	(%rax)
    1030: f3 0f 1e fa                  	endbr64
    1034: 68 00 00 00 00               	pushq	$0
    1039: f2 e9 e1 ff ff ff            	repne		jmp	-31 <.plt>
    103f: 90                           	nop
    1040: f3 0f 1e fa                  	endbr64
    1044: 68 01 00 00 00               	pushq	$1
    1049: f2 e9 d1 ff ff ff            	repne		jmp	-47 <.plt>
    104f: 90                           	nop
    1050: f3 0f 1e fa                  	endbr64
    1054: 68 02 00 00 00               	pushq	$2
    1059: f2 e9 c1 ff ff ff            	repne		jmp	-63 <.plt>
    105f: 90                           	nop
    1060: f3 0f 1e fa                  	endbr64
    1064: 68 03 00 00 00               	pushq	$3
    1069: f2 e9 b1 ff ff ff            	repne		jmp	-79 <.plt>
    106f: 90                           	nop
    1070: f3 0f 1e fa                  	endbr64
    1074: 68 04 00 00 00               	pushq	$4
    1079: f2 e9 a1 ff ff ff            	repne		jmp	-95 <.plt>
    107f: 90                           	nop
    1080: f3 0f 1e fa                  	endbr64
    1084: 68 05 00 00 00               	pushq	$5
    1089: f2 e9 91 ff ff ff            	repne		jmp	-111 <.plt>
    108f: 90                           	nop
    1090: f3 0f 1e fa                  	endbr64
    1094: 68 06 00 00 00               	pushq	$6
    1099: f2 e9 81 ff ff ff            	repne		jmp	-127 <.plt>
    109f: 90                           	nop

Disassembly of section .plt.got:

00000000000010a0 .plt.got:
    10a0: f3 0f 1e fa                  	endbr64
    10a4: f2 ff 25 4d 2f 00 00         	repne		jmpq	*12109(%rip)
    10ab: 0f 1f 44 00 00               	nopl	(%rax,%rax)

Disassembly of section .plt.sec:

00000000000010b0 .plt.sec:
    10b0: f3 0f 1e fa                  	endbr64
    10b4: f2 ff 25 e5 2e 00 00         	repne		jmpq	*12005(%rip)
    10bb: 0f 1f 44 00 00               	nopl	(%rax,%rax)
    10c0: f3 0f 1e fa                  	endbr64
    10c4: f2 ff 25 dd 2e 00 00         	repne		jmpq	*11997(%rip)
    10cb: 0f 1f 44 00 00               	nopl	(%rax,%rax)
    10d0: f3 0f 1e fa                  	endbr64
    10d4: f2 ff 25 d5 2e 00 00         	repne		jmpq	*11989(%rip)
    10db: 0f 1f 44 00 00               	nopl	(%rax,%rax)
    10e0: f3 0f 1e fa                  	endbr64
    10e4: f2 ff 25 cd 2e 00 00         	repne		jmpq	*11981(%rip)
    10eb: 0f 1f 44 00 00               	nopl	(%rax,%rax)
    10f0: f3 0f 1e fa                  	endbr64
    10f4: f2 ff 25 c5 2e 00 00         	repne		jmpq	*11973(%rip)
    10fb: 0f 1f 44 00 00               	nopl	(%rax,%rax)
    1100: f3 0f 1e fa                  	endbr64
    1104: f2 ff 25 bd 2e 00 00         	repne		jmpq	*11965(%rip)
    110b: 0f 1f 44 00 00               	nopl	(%rax,%rax)
    1110: f3 0f 1e fa                  	endbr64
    1114: f2 ff 25 b5 2e 00 00         	repne		jmpq	*11957(%rip)
    111b: 0f 1f 44 00 00               	nopl	(%rax,%rax)

Disassembly of section .text:

0000000000001120 main:
    1120: f3 0f 1e fa                  	endbr64
    1124: 4c 8d 54 24 08               	leaq	8(%rsp), %r10
    1129: 48 83 e4 c0                  	andq	$-64, %rsp
    112d: 41 ff 72 f8                  	pushq	-8(%r10)
    1131: 55                           	pushq	%rbp
    1132: 48 89 e5                     	movq	%rsp, %rbp
    1135: 41 57                        	pushq	%r15
    1137: 41 56                        	pushq	%r14
    1139: 49 89 f6                     	movq	%rsi, %r14
    113c: 31 f6                        	xorl	%esi, %esi
    113e: 41 55                        	pushq	%r13
    1140: 41 89 fd                     	movl	%edi, %r13d
    1143: 41 54                        	pushq	%r12
    1145: 4c 8d 65 b0                  	leaq	-80(%rbp), %r12
    1149: 41 52                        	pushq	%r10
    114b: 4c 89 e7                     	movq	%r12, %rdi
    114e: 53                           	pushq	%rbx
    114f: 48 83 ec 40                  	subq	$64, %rsp
    1153: 64 48 8b 04 25 28 00 00 00   	movq	%fs:40, %rax
    115c: 48 89 45 c8                  	movq	%rax, -56(%rbp)
    1160: 31 c0                        	xorl	%eax, %eax
    1162: e8 79 ff ff ff               	callq	-135 <.plt.sec+0x30>
    1167: 48 69 5d b0 40 42 0f 00      	imulq	$1000000, -80(%rbp), %rbx
    116f: 48 03 5d b8                  	addq	-72(%rbp), %rbx
    1173: 41 83 fd 02                  	cmpl	$2, %r13d
    1177: 0f 84 83 04 00 00            	je	1155 <main+0x4e0>
    117d: bf 00 c0 03 00               	movl	$245760, %edi
    1182: 41 be 00 78 00 00            	movl	$30720, %r14d
    1188: e8 73 ff ff ff               	callq	-141 <.plt.sec+0x50>
    118d: bf 00 c0 03 00               	movl	$245760, %edi
    1192: 49 89 c5                     	movq	%rax, %r13
    1195: e8 66 ff ff ff               	callq	-154 <.plt.sec+0x50>
    119a: bf 00 c0 03 00               	movl	$245760, %edi
    119f: 49 89 c7                     	movq	%rax, %r15
    11a2: e8 59 ff ff ff               	callq	-167 <.plt.sec+0x50>
    11a7: c7 45 a8 00 78 00 00         	movl	$30720, -88(%rbp)
    11ae: b9 00 78 00 00               	movl	$30720, %ecx
    11b3: 48 89 45 a0                  	movq	%rax, -96(%rbp)
    11b7: 62 f1 fd 48 28 05 7f 0f 00 00	vmovapd	3967(%rip), %zmm0
    11c1: 4c 89 e8                     	movq	%r13, %rax
    11c4: 49 8d 54 cd 00               	leaq	(%r13,%rcx,8), %rdx
    11c9: 0f 1f 80 00 00 00 00         	nopl	(%rax)
    11d0: 62 f1 fd 48 11 00            	vmovupd	%zmm0, (%rax)
    11d6: 48 83 c0 40                  	addq	$64, %rax
    11da: 48 39 d0                     	cmpq	%rdx, %rax
    11dd: 75 f1                        	jne	-15 <main+0xb0>
    11df: 48 89 ca                     	movq	%rcx, %rdx
    11e2: 48 83 e2 f8                  	andq	$-8, %rdx
    11e6: 89 d0                        	movl	%edx, %eax
    11e8: 48 39 ca                     	cmpq	%rcx, %rdx
    11eb: 0f 84 7b 04 00 00            	je	1147 <main+0x54c>
    11f1: c5 fb 10 0d c7 0f 00 00      	vmovsd	4039(%rip), %xmm1
    11f9: 48 63 d0                     	movslq	%eax, %rdx
    11fc: c4 c1 7b 11 4c d5 00         	vmovsd	%xmm1, (%r13,%rdx,8)
    1203: 8d 50 01                     	leal	1(%rax), %edx
    1206: 48 63 d2                     	movslq	%edx, %rdx
    1209: 49 39 d6                     	cmpq	%rdx, %r14
    120c: 7e 60                        	jle	96 <main+0x14e>
    120e: c4 c1 7b 11 4c d5 00         	vmovsd	%xmm1, (%r13,%rdx,8)
    1215: 8d 50 02                     	leal	2(%rax), %edx
    1218: 48 63 d2                     	movslq	%edx, %rdx
    121b: 49 39 d6                     	cmpq	%rdx, %r14
    121e: 7e 4e                        	jle	78 <main+0x14e>
    1220: c4 c1 7b 11 4c d5 00         	vmovsd	%xmm1, (%r13,%rdx,8)
    1227: 8d 50 03                     	leal	3(%rax), %edx
    122a: 48 63 d2                     	movslq	%edx, %rdx
    122d: 49 39 d6                     	cmpq	%rdx, %r14
    1230: 7e 3c                        	jle	60 <main+0x14e>
    1232: c4 c1 7b 11 4c d5 00         	vmovsd	%xmm1, (%r13,%rdx,8)
    1239: 8d 50 04                     	leal	4(%rax), %edx
    123c: 48 63 d2                     	movslq	%edx, %rdx
    123f: 49 39 d6                     	cmpq	%rdx, %r14
    1242: 7e 2a                        	jle	42 <main+0x14e>
    1244: c4 c1 7b 11 4c d5 00         	vmovsd	%xmm1, (%r13,%rdx,8)
    124b: 8d 50 05                     	leal	5(%rax), %edx
    124e: 48 63 d2                     	movslq	%edx, %rdx
    1251: 49 39 d6                     	cmpq	%rdx, %r14
    1254: 7e 18                        	jle	24 <main+0x14e>
    1256: 83 c0 06                     	addl	$6, %eax
    1259: c4 c1 7b 11 4c d5 00         	vmovsd	%xmm1, (%r13,%rdx,8)
    1260: 48 98                        	cltq
    1262: 49 39 c6                     	cmpq	%rax, %r14
    1265: 7e 07                        	jle	7 <main+0x14e>
    1267: c4 c1 7b 11 4c c5 00         	vmovsd	%xmm1, (%r13,%rax,8)
    126e: 4d 85 f6                     	testq	%r14, %r14
    1271: b9 01 00 00 00               	movl	$1, %ecx
    1276: 49 0f 4f ce                  	cmovgq	%r14, %rcx
    127a: 49 83 fe 07                  	cmpq	$7, %r14
    127e: 0f 8e 01 04 00 00            	jle	1025 <main+0x565>
    1284: 62 f1 fd 48 28 05 f2 0e 00 00	vmovapd	3826(%rip), %zmm0
    128e: 48 89 ca                     	movq	%rcx, %rdx
    1291: 4c 89 f8                     	movq	%r15, %rax
    1294: 48 c1 ea 03                  	shrq	$3, %rdx
    1298: 48 c1 e2 06                  	shlq	$6, %rdx
    129c: 4c 01 fa                     	addq	%r15, %rdx
    129f: 90                           	nop
    12a0: 62 f1 fd 48 11 00            	vmovupd	%zmm0, (%rax)
    12a6: 48 83 c0 40                  	addq	$64, %rax
    12aa: 48 39 d0                     	cmpq	%rdx, %rax
    12ad: 75 f1                        	jne	-15 <main+0x180>
    12af: 48 89 ca                     	movq	%rcx, %rdx
    12b2: 48 83 e2 f8                  	andq	$-8, %rdx
    12b6: 89 d0                        	movl	%edx, %eax
    12b8: 48 39 ca                     	cmpq	%rcx, %rdx
    12bb: 0f 84 37 03 00 00            	je	823 <main+0x4d8>
    12c1: c5 fb 10 05 ff 0e 00 00      	vmovsd	3839(%rip), %xmm0
    12c9: 48 63 d0                     	movslq	%eax, %rdx
    12cc: c4 c1 7b 11 04 d7            	vmovsd	%xmm0, (%r15,%rdx,8)
    12d2: 8d 50 01                     	leal	1(%rax), %edx
    12d5: 48 63 d2                     	movslq	%edx, %rdx
    12d8: 4c 39 f2                     	cmpq	%r14, %rdx
    12db: 0f 8d 17 03 00 00            	jge	791 <main+0x4d8>
    12e1: c4 c1 7b 11 04 d7            	vmovsd	%xmm0, (%r15,%rdx,8)
    12e7: 8d 50 02                     	leal	2(%rax), %edx
    12ea: 48 63 d2                     	movslq	%edx, %rdx
    12ed: 4c 39 f2                     	cmpq	%r14, %rdx
    12f0: 0f 8d 02 03 00 00            	jge	770 <main+0x4d8>
    12f6: c4 c1 7b 11 04 d7            	vmovsd	%xmm0, (%r15,%rdx,8)
    12fc: 8d 50 03                     	leal	3(%rax), %edx
    12ff: 48 63 d2                     	movslq	%edx, %rdx
    1302: 4c 39 f2                     	cmpq	%r14, %rdx
    1305: 0f 8d ed 02 00 00            	jge	749 <main+0x4d8>
    130b: c4 c1 7b 11 04 d7            	vmovsd	%xmm0, (%r15,%rdx,8)
    1311: 8d 50 04                     	leal	4(%rax), %edx
    1314: 48 63 d2                     	movslq	%edx, %rdx
    1317: 4c 39 f2                     	cmpq	%r14, %rdx
    131a: 0f 8d d8 02 00 00            	jge	728 <main+0x4d8>
    1320: c4 c1 7b 11 04 d7            	vmovsd	%xmm0, (%r15,%rdx,8)
    1326: 8d 50 05                     	leal	5(%rax), %edx
    1329: 48 63 d2                     	movslq	%edx, %rdx
    132c: 4c 39 f2                     	cmpq	%r14, %rdx
    132f: 0f 8d c3 02 00 00            	jge	707 <main+0x4d8>
    1335: 83 c0 06                     	addl	$6, %eax
    1338: c4 c1 7b 11 04 d7            	vmovsd	%xmm0, (%r15,%rdx,8)
    133e: 48 98                        	cltq
    1340: 4c 39 f0                     	cmpq	%r14, %rax
    1343: 0f 8d af 02 00 00            	jge	687 <main+0x4d8>
    1349: c4 c1 7b 11 04 c7            	vmovsd	%xmm0, (%r15,%rax,8)
    134f: c5 f8 77                     	vzeroupper
    1352: 31 f6                        	xorl	%esi, %esi
    1354: 4c 89 e7                     	movq	%r12, %rdi
    1357: c5 fb 11 4d 98               	vmovsd	%xmm1, -104(%rbp)
    135c: e8 7f fd ff ff               	callq	-641 <.plt.sec+0x30>
    1361: c5 e0 57 db                  	vxorps	%xmm3, %xmm3, %xmm3
    1365: bf 01 00 00 00               	movl	$1, %edi
    136a: 48 8d 35 9f 0c 00 00         	leaq	3231(%rip), %rsi
    1371: 48 69 45 b0 40 42 0f 00      	imulq	$1000000, -80(%rbp), %rax
    1379: 48 03 45 b8                  	addq	-72(%rbp), %rax
    137d: 48 29 d8                     	subq	%rbx, %rax
    1380: c4 e1 e2 2a c0               	vcvtsi2ss	%rax, %xmm3, %xmm0
    1385: b8 01 00 00 00               	movl	$1, %eax
    138a: c5 fa 5e 05 72 0d 00 00      	vdivss	3442(%rip), %xmm0, %xmm0
    1392: c5 fa 5a c0                  	vcvtss2sd	%xmm0, %xmm0, %xmm0
    1396: e8 75 fd ff ff               	callq	-651 <.plt.sec+0x60>
    139b: 4c 89 f2                     	movq	%r14, %rdx
    139e: bf 01 00 00 00               	movl	$1, %edi
    13a3: 31 c0                        	xorl	%eax, %eax
    13a5: 48 8d 35 b4 0c 00 00         	leaq	3252(%rip), %rsi
    13ac: e8 5f fd ff ff               	callq	-673 <.plt.sec+0x60>
    13b1: 31 f6                        	xorl	%esi, %esi
    13b3: 4c 89 e7                     	movq	%r12, %rdi
    13b6: e8 25 fd ff ff               	callq	-731 <.plt.sec+0x30>
    13bb: 8b 45 a8                     	movl	-88(%rbp), %eax
    13be: 48 69 5d b0 40 42 0f 00      	imulq	$1000000, -80(%rbp), %rbx
    13c6: 48 03 5d b8                  	addq	-72(%rbp), %rbx
    13ca: c5 fb 10 4d 98               	vmovsd	-104(%rbp), %xmm1
    13cf: 85 c0                        	testl	%eax, %eax
    13d1: 7e 2f                        	jle	47 <main+0x2e2>
    13d3: 8b 55 a8                     	movl	-88(%rbp), %edx
    13d6: 31 c0                        	xorl	%eax, %eax
    13d8: c1 ea 03                     	shrl	$3, %edx
    13db: 48 c1 e2 06                  	shlq	$6, %rdx
    13df: 90                           	nop
    13e0: 62 d1 fd 48 10 54 05 00      	vmovupd	(%r13,%rax), %zmm2
    13e8: 62 d1 ed 48 58 04 07         	vaddpd	(%r15,%rax), %zmm2, %zmm0
    13ef: 62 d1 fd 48 11 04 07         	vmovupd	%zmm0, (%r15,%rax)
    13f6: 48 83 c0 40                  	addq	$64, %rax
    13fa: 48 39 d0                     	cmpq	%rdx, %rax
    13fd: 75 e1                        	jne	-31 <main+0x2c0>
    13ff: c5 f8 77                     	vzeroupper
    1402: 31 d2                        	xorl	%edx, %edx
    1404: 48 8d 35 7d 0c 00 00         	leaq	3197(%rip), %rsi
    140b: bf 01 00 00 00               	movl	$1, %edi
    1410: 31 c0                        	xorl	%eax, %eax
    1412: c5 fb 11 4d 98               	vmovsd	%xmm1, -104(%rbp)
    1417: e8 f4 fc ff ff               	callq	-780 <.plt.sec+0x60>
    141c: 31 d2                        	xorl	%edx, %edx
    141e: 48 8d 35 8b 0c 00 00         	leaq	3211(%rip), %rsi
    1425: 31 c0                        	xorl	%eax, %eax
    1427: bf 01 00 00 00               	movl	$1, %edi
    142c: e8 df fc ff ff               	callq	-801 <.plt.sec+0x60>
    1431: 31 f6                        	xorl	%esi, %esi
    1433: 4c 89 e7                     	movq	%r12, %rdi
    1436: e8 a5 fc ff ff               	callq	-859 <.plt.sec+0x30>
    143b: c5 d8 57 e4                  	vxorps	%xmm4, %xmm4, %xmm4
    143f: bf 01 00 00 00               	movl	$1, %edi
    1444: 48 8d 35 db 0b 00 00         	leaq	3035(%rip), %rsi
    144b: 48 69 45 b0 40 42 0f 00      	imulq	$1000000, -80(%rbp), %rax
    1453: 48 03 45 b8                  	addq	-72(%rbp), %rax
    1457: 48 29 d8                     	subq	%rbx, %rax
    145a: c4 e1 da 2a c0               	vcvtsi2ss	%rax, %xmm4, %xmm0
    145f: b8 01 00 00 00               	movl	$1, %eax
    1464: c5 fa 5e 05 98 0c 00 00      	vdivss	3224(%rip), %xmm0, %xmm0
    146c: c5 fa 5a c0                  	vcvtss2sd	%xmm0, %xmm0, %xmm0
    1470: e8 9b fc ff ff               	callq	-869 <.plt.sec+0x60>
    1475: 8b 55 a8                     	movl	-88(%rbp), %edx
    1478: 48 8b 75 a0                  	movq	-96(%rbp), %rsi
    147c: 4c 89 ff                     	movq	%r15, %rdi
    147f: e8 9c 06 00 00               	callq	1692 <capture_ref_result>
    1484: 4d 85 f6                     	testq	%r14, %r14
    1487: c5 fb 10 4d 98               	vmovsd	-104(%rbp), %xmm1
    148c: 7e 54                        	jle	84 <main+0x3c2>
    148e: 4a 8d 14 f5 00 00 00 00      	leaq	(,%r14,8), %rdx
    1496: 4c 89 e8                     	movq	%r13, %rax
    1499: 62 f1 fd 48 28 05 9d 0c 00 00	vmovapd	3229(%rip), %zmm0
    14a3: 49 8d 4c 15 00               	leaq	(%r13,%rdx), %rcx
    14a8: 0f 1f 84 00 00 00 00 00      	nopl	(%rax,%rax)
    14b0: 62 f1 fd 48 11 00            	vmovupd	%zmm0, (%rax)
    14b6: 48 83 c0 40                  	addq	$64, %rax
    14ba: 48 39 c8                     	cmpq	%rcx, %rax
    14bd: 75 f1                        	jne	-15 <main+0x390>
    14bf: 62 f1 fd 48 28 05 b7 0c 00 00	vmovapd	3255(%rip), %zmm0
    14c9: 4c 89 f8                     	movq	%r15, %rax
    14cc: 4c 01 fa                     	addq	%r15, %rdx
    14cf: 90                           	nop
    14d0: 62 f1 fd 48 11 00            	vmovupd	%zmm0, (%rax)
    14d6: 48 83 c0 40                  	addq	$64, %rax
    14da: 48 39 d0                     	cmpq	%rdx, %rax
    14dd: 75 f1                        	jne	-15 <main+0x3b0>
    14df: c5 f8 77                     	vzeroupper
    14e2: 4c 89 f2                     	movq	%r14, %rdx
    14e5: 48 8d 35 f4 0b 00 00         	leaq	3060(%rip), %rsi
    14ec: bf 01 00 00 00               	movl	$1, %edi
    14f1: 31 c0                        	xorl	%eax, %eax
    14f3: c5 fb 11 4d 98               	vmovsd	%xmm1, -104(%rbp)
    14f8: e8 13 fc ff ff               	callq	-1005 <.plt.sec+0x60>
    14fd: 31 f6                        	xorl	%esi, %esi
    14ff: 4c 89 e7                     	movq	%r12, %rdi
    1502: e8 d9 fb ff ff               	callq	-1063 <.plt.sec+0x30>
    1507: 8b 55 a8                     	movl	-88(%rbp), %edx
    150a: 4c 89 fe                     	movq	%r15, %rsi
    150d: 4c 89 ef                     	movq	%r13, %rdi
    1510: c5 fb 10 4d 98               	vmovsd	-104(%rbp), %xmm1
    1515: 48 69 5d b0 40 42 0f 00      	imulq	$1000000, -80(%rbp), %rbx
    151d: 48 03 5d b8                  	addq	-72(%rbp), %rbx
    1521: c5 f9 28 c1                  	vmovapd	%xmm1, %xmm0
    1525: e8 a6 02 00 00               	callq	678 <axpy_intrinsics>
    152a: 31 d2                        	xorl	%edx, %edx
    152c: 48 8d 35 55 0b 00 00         	leaq	2901(%rip), %rsi
    1533: 31 c0                        	xorl	%eax, %eax
    1535: bf 01 00 00 00               	movl	$1, %edi
    153a: e8 d1 fb ff ff               	callq	-1071 <.plt.sec+0x60>
    153f: 31 d2                        	xorl	%edx, %edx
    1541: 48 8d 35 68 0b 00 00         	leaq	2920(%rip), %rsi
    1548: 31 c0                        	xorl	%eax, %eax
    154a: bf 01 00 00 00               	movl	$1, %edi
    154f: e8 bc fb ff ff               	callq	-1092 <.plt.sec+0x60>
    1554: 31 f6                        	xorl	%esi, %esi
    1556: 4c 89 e7                     	movq	%r12, %rdi
    1559: e8 82 fb ff ff               	callq	-1150 <.plt.sec+0x30>
    155e: c5 d0 57 ed                  	vxorps	%xmm5, %xmm5, %xmm5
    1562: bf 01 00 00 00               	movl	$1, %edi
    1567: 48 8d 35 d1 0a 00 00         	leaq	2769(%rip), %rsi
    156e: 48 69 45 b0 40 42 0f 00      	imulq	$1000000, -80(%rbp), %rax
    1576: 48 03 45 b8                  	addq	-72(%rbp), %rax
    157a: 48 29 d8                     	subq	%rbx, %rax
    157d: c4 e1 d2 2a c0               	vcvtsi2ss	%rax, %xmm5, %xmm0
    1582: b8 01 00 00 00               	movl	$1, %eax
    1587: c5 fa 5e 05 75 0b 00 00      	vdivss	2933(%rip), %xmm0, %xmm0
    158f: c5 fa 5a c0                  	vcvtss2sd	%xmm0, %xmm0, %xmm0
    1593: e8 78 fb ff ff               	callq	-1160 <.plt.sec+0x60>
    1598: 48 8d 3d ba 0a 00 00         	leaq	2746(%rip), %rdi
    159f: e8 1c fb ff ff               	callq	-1252 <.plt.sec+0x10>
    15a4: 48 8b 5d a0                  	movq	-96(%rbp), %rbx
    15a8: 4c 89 f2                     	movq	%r14, %rdx
    15ab: 4c 89 ff                     	movq	%r15, %rdi
    15ae: 48 89 de                     	movq	%rbx, %rsi
    15b1: e8 ea 05 00 00               	callq	1514 <test_result>
    15b6: 4c 89 ef                     	movq	%r13, %rdi
    15b9: e8 f2 fa ff ff               	callq	-1294 <.plt.sec>
    15be: 4c 89 ff                     	movq	%r15, %rdi
    15c1: e8 ea fa ff ff               	callq	-1302 <.plt.sec>
    15c6: 48 89 df                     	movq	%rbx, %rdi
    15c9: e8 e2 fa ff ff               	callq	-1310 <.plt.sec>
    15ce: 48 8b 45 c8                  	movq	-56(%rbp), %rax
    15d2: 64 48 33 04 25 28 00 00 00   	xorq	%fs:40, %rax
    15db: 0f 85 ab 00 00 00            	jne	171 <main+0x56c>
    15e1: 48 83 c4 40                  	addq	$64, %rsp
    15e5: 31 c0                        	xorl	%eax, %eax
    15e7: 5b                           	popq	%rbx
    15e8: 41 5a                        	popq	%r10
    15ea: 41 5c                        	popq	%r12
    15ec: 41 5d                        	popq	%r13
    15ee: 41 5e                        	popq	%r14
    15f0: 41 5f                        	popq	%r15
    15f2: 5d                           	popq	%rbp
    15f3: 49 8d 62 f8                  	leaq	-8(%r10), %rsp
    15f7: c3                           	retq
    15f8: c5 f8 77                     	vzeroupper
    15fb: e9 52 fd ff ff               	jmp	-686 <main+0x232>
    1600: 49 8b 7e 08                  	movq	8(%r14), %rdi
    1604: ba 0a 00 00 00               	movl	$10, %edx
    1609: 31 f6                        	xorl	%esi, %esi
    160b: e8 e0 fa ff ff               	callq	-1312 <.plt.sec+0x40>
    1610: 48 89 c7                     	movq	%rax, %rdi
    1613: 49 89 c6                     	movq	%rax, %r14
    1616: 48 c1 e7 0d                  	shlq	$13, %rdi
    161a: 49 c1 e6 0a                  	shlq	$10, %r14
    161e: 48 89 7d a8                  	movq	%rdi, -88(%rbp)
    1622: e8 d9 fa ff ff               	callq	-1319 <.plt.sec+0x50>
    1627: 48 8b 7d a8                  	movq	-88(%rbp), %rdi
    162b: 49 89 c5                     	movq	%rax, %r13
    162e: e8 cd fa ff ff               	callq	-1331 <.plt.sec+0x50>
    1633: 48 8b 7d a8                  	movq	-88(%rbp), %rdi
    1637: 49 89 c7                     	movq	%rax, %r15
    163a: e8 c1 fa ff ff               	callq	-1343 <.plt.sec+0x50>
    163f: 44 89 75 a8                  	movl	%r14d, -88(%rbp)
    1643: c5 fb 10 0d 75 0b 00 00      	vmovsd	2933(%rip), %xmm1
    164b: 48 89 45 a0                  	movq	%rax, -96(%rbp)
    164f: 4d 85 f6                     	testq	%r14, %r14
    1652: 0f 8e fa fc ff ff            	jle	-774 <main+0x232>
    1658: 4c 89 f1                     	movq	%r14, %rcx
    165b: 49 83 fe 07                  	cmpq	$7, %r14
    165f: 0f 8f 52 fb ff ff            	jg	-1198 <main+0x97>
    1665: 31 c0                        	xorl	%eax, %eax
    1667: e9 85 fb ff ff               	jmp	-1147 <main+0xd1>
    166c: 4d 85 f6                     	testq	%r14, %r14
    166f: b9 01 00 00 00               	movl	$1, %ecx
    1674: c5 fb 10 0d 44 0b 00 00      	vmovsd	2884(%rip), %xmm1
    167c: 49 0f 4f ce                  	cmovgq	%r14, %rcx
    1680: e9 ff fb ff ff               	jmp	-1025 <main+0x164>
    1685: 31 c0                        	xorl	%eax, %eax
    1687: e9 35 fc ff ff               	jmp	-971 <main+0x1a1>
    168c: e8 3f fa ff ff               	callq	-1473 <.plt.sec+0x20>
    1691: 66 2e 0f 1f 84 00 00 00 00 00	nopw	%cs:(%rax,%rax)
    169b: 0f 1f 44 00 00               	nopl	(%rax,%rax)

00000000000016a0 _start:
    16a0: f3 0f 1e fa                  	endbr64
    16a4: 31 ed                        	xorl	%ebp, %ebp
    16a6: 49 89 d1                     	movq	%rdx, %r9
    16a9: 5e                           	popq	%rsi
    16aa: 48 89 e2                     	movq	%rsp, %rdx
    16ad: 48 83 e4 f0                  	andq	$-16, %rsp
    16b1: 50                           	pushq	%rax
    16b2: 54                           	pushq	%rsp
    16b3: 4c 8d 05 46 06 00 00         	leaq	1606(%rip), %r8
    16ba: 48 8d 0d cf 05 00 00         	leaq	1487(%rip), %rcx
    16c1: 48 8d 3d 58 fa ff ff         	leaq	-1448(%rip), %rdi
    16c8: ff 15 12 29 00 00            	callq	*10514(%rip)
    16ce: f4                           	hlt
    16cf: 90                           	nop

00000000000016d0 deregister_tm_clones:
    16d0: 48 8d 3d 39 29 00 00         	leaq	10553(%rip), %rdi
    16d7: 48 8d 05 32 29 00 00         	leaq	10546(%rip), %rax
    16de: 48 39 f8                     	cmpq	%rdi, %rax
    16e1: 74 15                        	je	21 <deregister_tm_clones+0x28>
    16e3: 48 8b 05 ee 28 00 00         	movq	10478(%rip), %rax
    16ea: 48 85 c0                     	testq	%rax, %rax
    16ed: 74 09                        	je	9 <deregister_tm_clones+0x28>
    16ef: ff e0                        	jmpq	*%rax
    16f1: 0f 1f 80 00 00 00 00         	nopl	(%rax)
    16f8: c3                           	retq
    16f9: 0f 1f 80 00 00 00 00         	nopl	(%rax)

0000000000001700 register_tm_clones:
    1700: 48 8d 3d 09 29 00 00         	leaq	10505(%rip), %rdi
    1707: 48 8d 35 02 29 00 00         	leaq	10498(%rip), %rsi
    170e: 48 29 fe                     	subq	%rdi, %rsi
    1711: 48 89 f0                     	movq	%rsi, %rax
    1714: 48 c1 ee 3f                  	shrq	$63, %rsi
    1718: 48 c1 f8 03                  	sarq	$3, %rax
    171c: 48 01 c6                     	addq	%rax, %rsi
    171f: 48 d1 fe                     	sarq	%rsi
    1722: 74 14                        	je	20 <register_tm_clones+0x38>
    1724: 48 8b 05 c5 28 00 00         	movq	10437(%rip), %rax
    172b: 48 85 c0                     	testq	%rax, %rax
    172e: 74 08                        	je	8 <register_tm_clones+0x38>
    1730: ff e0                        	jmpq	*%rax
    1732: 66 0f 1f 44 00 00            	nopw	(%rax,%rax)
    1738: c3                           	retq
    1739: 0f 1f 80 00 00 00 00         	nopl	(%rax)

0000000000001740 __do_global_dtors_aux:
    1740: f3 0f 1e fa                  	endbr64
    1744: 80 3d c5 28 00 00 00         	cmpb	$0, 10437(%rip)
    174b: 75 2b                        	jne	43 <__do_global_dtors_aux+0x38>
    174d: 55                           	pushq	%rbp
    174e: 48 83 3d a2 28 00 00 00      	cmpq	$0, 10402(%rip)
    1756: 48 89 e5                     	movq	%rsp, %rbp
    1759: 74 0c                        	je	12 <__do_global_dtors_aux+0x27>
    175b: 48 8b 3d a6 28 00 00         	movq	10406(%rip), %rdi
    1762: e8 39 f9 ff ff               	callq	-1735 <.plt.got>
    1767: e8 64 ff ff ff               	callq	-156 <deregister_tm_clones>
    176c: c6 05 9d 28 00 00 01         	movb	$1, 10397(%rip)
    1773: 5d                           	popq	%rbp
    1774: c3                           	retq
    1775: 0f 1f 00                     	nopl	(%rax)
    1778: c3                           	retq
    1779: 0f 1f 80 00 00 00 00         	nopl	(%rax)

0000000000001780 frame_dummy:
    1780: f3 0f 1e fa                  	endbr64
    1784: e9 77 ff ff ff               	jmp	-137 <register_tm_clones>
    1789: 0f 1f 80 00 00 00 00         	nopl	(%rax)

0000000000001790 loop_bound:
    1790: f3 0f 1e fa                  	endbr64
    1794: 89 f0                        	movl	%esi, %eax
    1796: c5 f0 57 c9                  	vxorps	%xmm1, %xmm1, %xmm1
    179a: 99                           	cltd
    179b: 31 d0                        	xorl	%edx, %eax
    179d: 29 d0                        	subl	%edx, %eax
    179f: 99                           	cltd
    17a0: f7 ff                        	idivl	%edi
    17a2: c5 f3 2a c0                  	vcvtsi2sd	%eax, %xmm1, %xmm0
    17a6: c5 f3 2a cf                  	vcvtsi2sd	%edi, %xmm1, %xmm1
    17aa: c5 fb 59 c1                  	vmulsd	%xmm1, %xmm0, %xmm0
    17ae: c5 fb 2c c0                  	vcvttsd2si	%xmm0, %eax
    17b2: c3                           	retq
    17b3: 66 66 2e 0f 1f 84 00 00 00 00 00     	nopw	%cs:(%rax,%rax)
    17be: 66 90                        	nop

00000000000017c0 madd:
    17c0: f3 0f 1e fa                  	endbr64
    17c4: 62 f2 ed 48 b8 c1            	vfmadd231pd	%zmm1, %zmm2, %zmm0
    17ca: c3                           	retq
    17cb: 0f 1f 44 00 00               	nopl	(%rax,%rax)

00000000000017d0 axpy_intrinsics:
    17d0: f3 0f 1e fa                  	endbr64
    17d4: 89 d1                        	movl	%edx, %ecx
    17d6: c5 f0 57 c9                  	vxorps	%xmm1, %xmm1, %xmm1
    17da: 62 f2 fd 48 19 d0            	vbroadcastsd	%xmm0, %zmm2
    17e0: c1 f9 1f                     	sarl	$31, %ecx
    17e3: 89 c8                        	movl	%ecx, %eax
    17e5: 31 d0                        	xorl	%edx, %eax
    17e7: 29 c8                        	subl	%ecx, %eax
    17e9: c1 f8 03                     	sarl	$3, %eax
    17ec: c5 f3 2a c8                  	vcvtsi2sd	%eax, %xmm1, %xmm1
    17f0: c5 f3 59 0d 10 08 00 00      	vmulsd	2064(%rip), %xmm1, %xmm1
    17f8: c5 fb 2c c9                  	vcvttsd2si	%xmm1, %ecx
    17fc: 85 c9                        	testl	%ecx, %ecx
    17fe: 7e 60                        	jle	96 <axpy_intrinsics+0x90>
    1800: 31 c0                        	xorl	%eax, %eax
    1802: 66 0f 1f 44 00 00            	nopw	(%rax,%rax)
    1808: 62 f1 fd 48 10 0c c7         	vmovupd	(%rdi,%rax,8), %zmm1
    180f: 62 f2 ed 48 a8 0c c6         	vfmadd213pd	(%rsi,%rax,8), %zmm2, %zmm1
    1816: 62 f1 fd 48 11 0c c6         	vmovupd	%zmm1, (%rsi,%rax,8)
    181d: 48 83 c0 08                  	addq	$8, %rax
    1821: 39 c1                        	cmpl	%eax, %ecx
    1823: 7f e3                        	jg	-29 <axpy_intrinsics+0x38>
    1825: 83 e9 01                     	subl	$1, %ecx
    1828: c1 e9 03                     	shrl	$3, %ecx
    182b: 8d 04 cd 08 00 00 00         	leal	8(,%rcx,8), %eax
    1832: 39 c2                        	cmpl	%eax, %edx
    1834: 7e 22                        	jle	34 <axpy_intrinsics+0x88>
    1836: 48 98                        	cltq
    1838: 0f 1f 84 00 00 00 00 00      	nopl	(%rax,%rax)
    1840: c5 fb 10 0c c7               	vmovsd	(%rdi,%rax,8), %xmm1
    1845: c4 e2 f9 a9 0c c6            	vfmadd213sd	(%rsi,%rax,8), %xmm0, %xmm1
    184b: c5 fb 11 0c c6               	vmovsd	%xmm1, (%rsi,%rax,8)
    1850: 48 83 c0 01                  	addq	$1, %rax
    1854: 39 c2                        	cmpl	%eax, %edx
    1856: 7f e8                        	jg	-24 <axpy_intrinsics+0x70>
    1858: c5 f8 77                     	vzeroupper
    185b: c3                           	retq
    185c: 0f 1f 40 00                  	nopl	(%rax)
    1860: 31 c0                        	xorl	%eax, %eax
    1862: eb ce                        	jmp	-50 <axpy_intrinsics+0x62>
    1864: 66 2e 0f 1f 84 00 00 00 00 00	nopw	%cs:(%rax,%rax)
    186e: 66 90                        	nop

0000000000001870 get_time:
    1870: f3 0f 1e fa                  	endbr64
    1874: 48 83 ec 28                  	subq	$40, %rsp
    1878: 31 f6                        	xorl	%esi, %esi
    187a: 64 48 8b 04 25 28 00 00 00   	movq	%fs:40, %rax
    1883: 48 89 44 24 18               	movq	%rax, 24(%rsp)
    1888: 31 c0                        	xorl	%eax, %eax
    188a: 48 89 e7                     	movq	%rsp, %rdi
    188d: e8 4e f8 ff ff               	callq	-1970 <.plt.sec+0x30>
    1892: 48 69 04 24 40 42 0f 00      	imulq	$1000000, (%rsp), %rax
    189a: 48 03 44 24 08               	addq	8(%rsp), %rax
    189f: 48 8b 54 24 18               	movq	24(%rsp), %rdx
    18a4: 64 48 33 14 25 28 00 00 00   	xorq	%fs:40, %rdx
    18ad: 75 05                        	jne	5 <get_time+0x44>
    18af: 48 83 c4 28                  	addq	$40, %rsp
    18b3: c3                           	retq
    18b4: e8 17 f8 ff ff               	callq	-2025 <.plt.sec+0x20>
    18b9: 0f 1f 80 00 00 00 00         	nopl	(%rax)

00000000000018c0 elapsed_time:
    18c0: f3 0f 1e fa                  	endbr64
    18c4: 48 29 fe                     	subq	%rdi, %rsi
    18c7: c5 f8 57 c0                  	vxorps	%xmm0, %xmm0, %xmm0
    18cb: c4 e1 fa 2a c6               	vcvtsi2ss	%rsi, %xmm0, %xmm0
    18d0: c5 fa 5e 05 2c 08 00 00      	vdivss	2092(%rip), %xmm0, %xmm0
    18d8: c3                           	retq
    18d9: 0f 1f 80 00 00 00 00         	nopl	(%rax)

00000000000018e0 axpy_ref:
    18e0: f3 0f 1e fa                  	endbr64
    18e4: 85 d2                        	testl	%edx, %edx
    18e6: 0f 8e 37 01 00 00            	jle	311 <axpy_ref+0x143>
    18ec: 48 8d 4e 3f                  	leaq	63(%rsi), %rcx
    18f0: 8d 42 ff                     	leal	-1(%rdx), %eax
    18f3: 48 29 f9                     	subq	%rdi, %rcx
    18f6: 48 83 f9 7e                  	cmpq	$126, %rcx
    18fa: 0f 86 28 01 00 00            	jbe	296 <axpy_ref+0x148>
    1900: 83 f8 06                     	cmpl	$6, %eax
    1903: 0f 86 1f 01 00 00            	jbe	287 <axpy_ref+0x148>
    1909: 89 d1                        	movl	%edx, %ecx
    190b: 62 f2 fd 48 19 d0            	vbroadcastsd	%xmm0, %zmm2
    1911: 31 c0                        	xorl	%eax, %eax
    1913: c1 e9 03                     	shrl	$3, %ecx
    1916: 48 c1 e1 06                  	shlq	$6, %rcx
    191a: 66 0f 1f 44 00 00            	nopw	(%rax,%rax)
    1920: 62 f1 fd 48 10 0c 07         	vmovupd	(%rdi,%rax), %zmm1
    1927: 62 f2 ed 48 a8 0c 06         	vfmadd213pd	(%rsi,%rax), %zmm2, %zmm1
    192e: 62 f1 fd 48 11 0c 06         	vmovupd	%zmm1, (%rsi,%rax)
    1935: 48 83 c0 40                  	addq	$64, %rax
    1939: 48 39 c8                     	cmpq	%rcx, %rax
    193c: 75 e2                        	jne	-30 <axpy_ref+0x40>
    193e: 89 d0                        	movl	%edx, %eax
    1940: 83 e0 f8                     	andl	$-8, %eax
    1943: f6 c2 07                     	testb	$7, %dl
    1946: 0f 84 d4 00 00 00            	je	212 <axpy_ref+0x140>
    194c: 41 89 c0                     	movl	%eax, %r8d
    194f: 4a 8d 0c c6                  	leaq	(%rsi,%r8,8), %rcx
    1953: c4 a1 7b 10 0c c7            	vmovsd	(%rdi,%r8,8), %xmm1
    1959: c4 e2 f9 a9 09               	vfmadd213sd	(%rcx), %xmm0, %xmm1
    195e: c5 fb 11 09                  	vmovsd	%xmm1, (%rcx)
    1962: 8d 48 01                     	leal	1(%rax), %ecx
    1965: 39 ca                        	cmpl	%ecx, %edx
    1967: 0f 8e b3 00 00 00            	jle	179 <axpy_ref+0x140>
    196d: 48 63 c9                     	movslq	%ecx, %rcx
    1970: 4c 8d 04 ce                  	leaq	(%rsi,%rcx,8), %r8
    1974: c5 fb 10 0c cf               	vmovsd	(%rdi,%rcx,8), %xmm1
    1979: 8d 48 02                     	leal	2(%rax), %ecx
    197c: c4 c2 f9 a9 08               	vfmadd213sd	(%r8), %xmm0, %xmm1
    1981: c4 c1 7b 11 08               	vmovsd	%xmm1, (%r8)
    1986: 39 ca                        	cmpl	%ecx, %edx
    1988: 0f 8e 92 00 00 00            	jle	146 <axpy_ref+0x140>
    198e: 48 63 c9                     	movslq	%ecx, %rcx
    1991: 4c 8d 04 ce                  	leaq	(%rsi,%rcx,8), %r8
    1995: c5 fb 10 0c cf               	vmovsd	(%rdi,%rcx,8), %xmm1
    199a: 8d 48 03                     	leal	3(%rax), %ecx
    199d: c4 c2 f9 a9 08               	vfmadd213sd	(%r8), %xmm0, %xmm1
    19a2: c4 c1 7b 11 08               	vmovsd	%xmm1, (%r8)
    19a7: 39 ca                        	cmpl	%ecx, %edx
    19a9: 7e 75                        	jle	117 <axpy_ref+0x140>
    19ab: 48 63 c9                     	movslq	%ecx, %rcx
    19ae: 4c 8d 04 ce                  	leaq	(%rsi,%rcx,8), %r8
    19b2: c5 fb 10 0c cf               	vmovsd	(%rdi,%rcx,8), %xmm1
    19b7: 8d 48 04                     	leal	4(%rax), %ecx
    19ba: c4 c2 f9 a9 08               	vfmadd213sd	(%r8), %xmm0, %xmm1
    19bf: c4 c1 7b 11 08               	vmovsd	%xmm1, (%r8)
    19c4: 39 ca                        	cmpl	%ecx, %edx
    19c6: 7e 58                        	jle	88 <axpy_ref+0x140>
    19c8: 48 63 c9                     	movslq	%ecx, %rcx
    19cb: 4c 8d 04 ce                  	leaq	(%rsi,%rcx,8), %r8
    19cf: c5 fb 10 0c cf               	vmovsd	(%rdi,%rcx,8), %xmm1
    19d4: 8d 48 05                     	leal	5(%rax), %ecx
    19d7: c4 c2 f9 a9 08               	vfmadd213sd	(%r8), %xmm0, %xmm1
    19dc: c4 c1 7b 11 08               	vmovsd	%xmm1, (%r8)
    19e1: 39 ca                        	cmpl	%ecx, %edx
    19e3: 7e 3b                        	jle	59 <axpy_ref+0x140>
    19e5: 48 63 c9                     	movslq	%ecx, %rcx
    19e8: 83 c0 06                     	addl	$6, %eax
    19eb: 4c 8d 04 ce                  	leaq	(%rsi,%rcx,8), %r8
    19ef: c5 fb 10 0c cf               	vmovsd	(%rdi,%rcx,8), %xmm1
    19f4: c4 c2 f9 a9 08               	vfmadd213sd	(%r8), %xmm0, %xmm1
    19f9: c4 c1 7b 11 08               	vmovsd	%xmm1, (%r8)
    19fe: 39 c2                        	cmpl	%eax, %edx
    1a00: 7e 1e                        	jle	30 <axpy_ref+0x140>
    1a02: 48 98                        	cltq
    1a04: 48 8d 14 c6                  	leaq	(%rsi,%rax,8), %rdx
    1a08: c5 fb 10 1a                  	vmovsd	(%rdx), %xmm3
    1a0c: c4 e2 e1 99 04 c7            	vfmadd132sd	(%rdi,%rax,8), %xmm3, %xmm0
    1a12: c5 fb 11 02                  	vmovsd	%xmm0, (%rdx)
    1a16: c5 f8 77                     	vzeroupper
    1a19: c3                           	retq
    1a1a: 66 0f 1f 44 00 00            	nopw	(%rax,%rax)
    1a20: c5 f8 77                     	vzeroupper
    1a23: c3                           	retq
    1a24: 0f 1f 40 00                  	nopl	(%rax)
    1a28: 89 c2                        	movl	%eax, %edx
    1a2a: 31 c0                        	xorl	%eax, %eax
    1a2c: 0f 1f 40 00                  	nopl	(%rax)
    1a30: c5 fb 10 0c c7               	vmovsd	(%rdi,%rax,8), %xmm1
    1a35: c4 e2 f9 a9 0c c6            	vfmadd213sd	(%rsi,%rax,8), %xmm0, %xmm1
    1a3b: 48 89 c1                     	movq	%rax, %rcx
    1a3e: c5 fb 11 0c c6               	vmovsd	%xmm1, (%rsi,%rax,8)
    1a43: 48 83 c0 01                  	addq	$1, %rax
    1a47: 48 39 d1                     	cmpq	%rdx, %rcx
    1a4a: 75 e4                        	jne	-28 <axpy_ref+0x150>
    1a4c: c3                           	retq
    1a4d: 0f 1f 00                     	nopl	(%rax)

0000000000001a50 init_vector:
    1a50: f3 0f 1e fa                  	endbr64
    1a54: 48 85 f6                     	testq	%rsi, %rsi
    1a57: 0f 8e b2 00 00 00            	jle	178 <init_vector+0xbf>
    1a5d: 48 8d 46 ff                  	leaq	-1(%rsi), %rax
    1a61: 48 83 f8 06                  	cmpq	$6, %rax
    1a65: 0f 86 a9 00 00 00            	jbe	169 <init_vector+0xc4>
    1a6b: 48 89 f2                     	movq	%rsi, %rdx
    1a6e: 62 f2 fd 48 19 c8            	vbroadcastsd	%xmm0, %zmm1
    1a74: 48 89 f8                     	movq	%rdi, %rax
    1a77: 48 c1 ea 03                  	shrq	$3, %rdx
    1a7b: 48 c1 e2 06                  	shlq	$6, %rdx
    1a7f: 48 01 fa                     	addq	%rdi, %rdx
    1a82: 66 0f 1f 44 00 00            	nopw	(%rax,%rax)
    1a88: 62 f1 fd 48 11 08            	vmovupd	%zmm1, (%rax)
    1a8e: 48 83 c0 40                  	addq	$64, %rax
    1a92: 48 39 d0                     	cmpq	%rdx, %rax
    1a95: 75 f1                        	jne	-15 <init_vector+0x38>
    1a97: 48 89 f2                     	movq	%rsi, %rdx
    1a9a: 48 83 e2 f8                  	andq	$-8, %rdx
    1a9e: 89 d0                        	movl	%edx, %eax
    1aa0: 48 39 d6                     	cmpq	%rdx, %rsi
    1aa3: 74 6b                        	je	107 <init_vector+0xc0>
    1aa5: c5 f8 77                     	vzeroupper
    1aa8: 48 63 d0                     	movslq	%eax, %rdx
    1aab: c5 fb 11 04 d7               	vmovsd	%xmm0, (%rdi,%rdx,8)
    1ab0: 8d 50 01                     	leal	1(%rax), %edx
    1ab3: 48 63 d2                     	movslq	%edx, %rdx
    1ab6: 48 39 d6                     	cmpq	%rdx, %rsi
    1ab9: 7e 54                        	jle	84 <init_vector+0xbf>
    1abb: c5 fb 11 04 d7               	vmovsd	%xmm0, (%rdi,%rdx,8)
    1ac0: 8d 50 02                     	leal	2(%rax), %edx
    1ac3: 48 63 d2                     	movslq	%edx, %rdx
    1ac6: 48 39 d6                     	cmpq	%rdx, %rsi
    1ac9: 7e 44                        	jle	68 <init_vector+0xbf>
    1acb: c5 fb 11 04 d7               	vmovsd	%xmm0, (%rdi,%rdx,8)
    1ad0: 8d 50 03                     	leal	3(%rax), %edx
    1ad3: 48 63 d2                     	movslq	%edx, %rdx
    1ad6: 48 39 d6                     	cmpq	%rdx, %rsi
    1ad9: 7e 34                        	jle	52 <init_vector+0xbf>
    1adb: c5 fb 11 04 d7               	vmovsd	%xmm0, (%rdi,%rdx,8)
    1ae0: 8d 50 04                     	leal	4(%rax), %edx
    1ae3: 48 63 d2                     	movslq	%edx, %rdx
    1ae6: 48 39 d6                     	cmpq	%rdx, %rsi
    1ae9: 7e 24                        	jle	36 <init_vector+0xbf>
    1aeb: c5 fb 11 04 d7               	vmovsd	%xmm0, (%rdi,%rdx,8)
    1af0: 8d 50 05                     	leal	5(%rax), %edx
    1af3: 48 63 d2                     	movslq	%edx, %rdx
    1af6: 48 39 d6                     	cmpq	%rdx, %rsi
    1af9: 7e 14                        	jle	20 <init_vector+0xbf>
    1afb: 83 c0 06                     	addl	$6, %eax
    1afe: c5 fb 11 04 d7               	vmovsd	%xmm0, (%rdi,%rdx,8)
    1b03: 48 98                        	cltq
    1b05: 48 39 c6                     	cmpq	%rax, %rsi
    1b08: 7e 05                        	jle	5 <init_vector+0xbf>
    1b0a: c5 fb 11 04 c7               	vmovsd	%xmm0, (%rdi,%rax,8)
    1b0f: c3                           	retq
    1b10: c5 f8 77                     	vzeroupper
    1b13: c3                           	retq
    1b14: 31 c0                        	xorl	%eax, %eax
    1b16: eb 90                        	jmp	-112 <init_vector+0x58>
    1b18: 0f 1f 84 00 00 00 00 00      	nopl	(%rax,%rax)

0000000000001b20 capture_ref_result:
    1b20: f3 0f 1e fa                  	endbr64
    1b24: 85 d2                        	testl	%edx, %edx
    1b26: 7e 76                        	jle	118 <capture_ref_result+0x7e>
    1b28: 48 8d 4f 0f                  	leaq	15(%rdi), %rcx
    1b2c: 8d 42 ff                     	leal	-1(%rdx), %eax
    1b2f: 48 29 f1                     	subq	%rsi, %rcx
    1b32: 48 83 f9 1e                  	cmpq	$30, %rcx
    1b36: 76 48                        	jbe	72 <capture_ref_result+0x60>
    1b38: 83 f8 03                     	cmpl	$3, %eax
    1b3b: 76 43                        	jbe	67 <capture_ref_result+0x60>
    1b3d: 89 d1                        	movl	%edx, %ecx
    1b3f: 31 c0                        	xorl	%eax, %eax
    1b41: d1 e9                        	shrl	%ecx
    1b43: 48 c1 e1 04                  	shlq	$4, %rcx
    1b47: 66 0f 1f 84 00 00 00 00 00   	nopw	(%rax,%rax)
    1b50: 66 0f 10 0c 07               	movupd	(%rdi,%rax), %xmm1
    1b55: 0f 11 0c 06                  	movups	%xmm1, (%rsi,%rax)
    1b59: 48 83 c0 10                  	addq	$16, %rax
    1b5d: 48 39 c1                     	cmpq	%rax, %rcx
    1b60: 75 ee                        	jne	-18 <capture_ref_result+0x30>
    1b62: 89 d0                        	movl	%edx, %eax
    1b64: 83 e0 fe                     	andl	$-2, %eax
    1b67: 83 e2 01                     	andl	$1, %edx
    1b6a: 74 32                        	je	50 <capture_ref_result+0x7e>
    1b6c: f2 0f 10 04 c7               	movsd	(%rdi,%rax,8), %xmm0
    1b71: f2 0f 11 04 c6               	movsd	%xmm0, (%rsi,%rax,8)
    1b76: c3                           	retq
    1b77: 66 0f 1f 84 00 00 00 00 00   	nopw	(%rax,%rax)
    1b80: 89 c2                        	movl	%eax, %edx
    1b82: 31 c0                        	xorl	%eax, %eax
    1b84: 0f 1f 40 00                  	nopl	(%rax)
    1b88: f2 0f 10 04 c7               	movsd	(%rdi,%rax,8), %xmm0
    1b8d: 48 89 c1                     	movq	%rax, %rcx
    1b90: f2 0f 11 04 c6               	movsd	%xmm0, (%rsi,%rax,8)
    1b95: 48 83 c0 01                  	addq	$1, %rax
    1b99: 48 39 ca                     	cmpq	%rcx, %rdx
    1b9c: 75 ea                        	jne	-22 <capture_ref_result+0x68>
    1b9e: c3                           	retq
    1b9f: 90                           	nop

0000000000001ba0 test_result:
    1ba0: f3 0f 1e fa                  	endbr64
    1ba4: 48 85 d2                     	testq	%rdx, %rdx
    1ba7: 0f 8e d2 00 00 00            	jle	210 <test_result+0xdf>
    1bad: 41 57                        	pushq	%r15
    1baf: 4c 8d 3d 1a 06 00 00         	leaq	1562(%rip), %r15
    1bb6: 41 56                        	pushq	%r14
    1bb8: 45 31 f6                     	xorl	%r14d, %r14d
    1bbb: 41 55                        	pushq	%r13
    1bbd: 49 89 f5                     	movq	%rsi, %r13
    1bc0: 41 54                        	pushq	%r12
    1bc2: 49 89 fc                     	movq	%rdi, %r12
    1bc5: 55                           	pushq	%rbp
    1bc6: 48 89 d5                     	movq	%rdx, %rbp
    1bc9: 53                           	pushq	%rbx
    1bca: 31 db                        	xorl	%ebx, %ebx
    1bcc: 48 83 ec 08                  	subq	$8, %rsp
    1bd0: f3 0f 7e 25 48 06 00 00      	movq	1608(%rip), %xmm4
    1bd8: f2 0f 10 1d 50 06 00 00      	movsd	1616(%rip), %xmm3
    1be0: eb 0f                        	jmp	15 <test_result+0x51>
    1be2: 66 0f 1f 44 00 00            	nopw	(%rax,%rax)
    1be8: 48 83 c3 01                  	addq	$1, %rbx
    1bec: 48 39 dd                     	cmpq	%rbx, %rbp
    1bef: 74 6f                        	je	111 <test_result+0xc0>
    1bf1: f2 41 0f 10 14 dc            	movsd	(%r12,%rbx,8), %xmm2
    1bf7: f2 41 0f 10 4c dd 00         	movsd	(%r13,%rbx,8), %xmm1
    1bfe: 66 0f 28 c2                  	movapd	%xmm2, %xmm0
    1c02: f2 0f 5c c1                  	subsd	%xmm1, %xmm0
    1c06: 66 0f 54 c4                  	andpd	%xmm4, %xmm0
    1c0a: 66 0f 2f c3                  	comisd	%xmm3, %xmm0
    1c0e: 76 d8                        	jbe	-40 <test_result+0x48>
    1c10: 48 89 d9                     	movq	%rbx, %rcx
    1c13: 66 0f 28 c2                  	movapd	%xmm2, %xmm0
    1c17: 48 89 da                     	movq	%rbx, %rdx
    1c1a: 4c 89 fe                     	movq	%r15, %rsi
    1c1d: bf 01 00 00 00               	movl	$1, %edi
    1c22: b8 02 00 00 00               	movl	$2, %eax
    1c27: 41 83 c6 01                  	addl	$1, %r14d
    1c2b: e8 e0 f4 ff ff               	callq	-2848 <.plt.sec+0x60>
    1c30: 48 8b 05 f9 05 00 00         	movq	1529(%rip), %rax
    1c37: 41 83 fe 64                  	cmpl	$100, %r14d
    1c3b: f3 0f 7e 25 dd 05 00 00      	movq	1501(%rip), %xmm4
    1c43: 66 48 0f 6e d8               	movq	%rax, %xmm3
    1c48: 75 9e                        	jne	-98 <test_result+0x48>
    1c4a: 48 83 c4 08                  	addq	$8, %rsp
    1c4e: 5b                           	popq	%rbx
    1c4f: 5d                           	popq	%rbp
    1c50: 41 5c                        	popq	%r12
    1c52: 41 5d                        	popq	%r13
    1c54: 41 5e                        	popq	%r14
    1c56: 41 5f                        	popq	%r15
    1c58: c3                           	retq
    1c59: 0f 1f 80 00 00 00 00         	nopl	(%rax)
    1c60: 45 85 f6                     	testl	%r14d, %r14d
    1c63: 75 e5                        	jne	-27 <test_result+0xaa>
    1c65: 48 83 c4 08                  	addq	$8, %rsp
    1c69: 48 8d 3d 9b 05 00 00         	leaq	1435(%rip), %rdi
    1c70: 5b                           	popq	%rbx
    1c71: 5d                           	popq	%rbp
    1c72: 41 5c                        	popq	%r12
    1c74: 41 5d                        	popq	%r13
    1c76: 41 5e                        	popq	%r14
    1c78: 41 5f                        	popq	%r15
    1c7a: e9 41 f4 ff ff               	jmp	-3007 <.plt.sec+0x10>
    1c7f: 48 8d 3d 85 05 00 00         	leaq	1413(%rip), %rdi
    1c86: e9 35 f4 ff ff               	jmp	-3019 <.plt.sec+0x10>
    1c8b: 0f 1f 44 00 00               	nopl	(%rax,%rax)

0000000000001c90 __libc_csu_init:
    1c90: f3 0f 1e fa                  	endbr64
    1c94: 41 57                        	pushq	%r15
    1c96: 4c 8d 3d eb 20 00 00         	leaq	8427(%rip), %r15
    1c9d: 41 56                        	pushq	%r14
    1c9f: 49 89 d6                     	movq	%rdx, %r14
    1ca2: 41 55                        	pushq	%r13
    1ca4: 49 89 f5                     	movq	%rsi, %r13
    1ca7: 41 54                        	pushq	%r12
    1ca9: 41 89 fc                     	movl	%edi, %r12d
    1cac: 55                           	pushq	%rbp
    1cad: 48 8d 2d dc 20 00 00         	leaq	8412(%rip), %rbp
    1cb4: 53                           	pushq	%rbx
    1cb5: 4c 29 fd                     	subq	%r15, %rbp
    1cb8: 48 83 ec 08                  	subq	$8, %rsp
    1cbc: e8 3f f3 ff ff               	callq	-3265 <_init>
    1cc1: 48 c1 fd 03                  	sarq	$3, %rbp
    1cc5: 74 1f                        	je	31 <__libc_csu_init+0x56>
    1cc7: 31 db                        	xorl	%ebx, %ebx
    1cc9: 0f 1f 80 00 00 00 00         	nopl	(%rax)
    1cd0: 4c 89 f2                     	movq	%r14, %rdx
    1cd3: 4c 89 ee                     	movq	%r13, %rsi
    1cd6: 44 89 e7                     	movl	%r12d, %edi
    1cd9: 41 ff 14 df                  	callq	*(%r15,%rbx,8)
    1cdd: 48 83 c3 01                  	addq	$1, %rbx
    1ce1: 48 39 dd                     	cmpq	%rbx, %rbp
    1ce4: 75 ea                        	jne	-22 <__libc_csu_init+0x40>
    1ce6: 48 83 c4 08                  	addq	$8, %rsp
    1cea: 5b                           	popq	%rbx
    1ceb: 5d                           	popq	%rbp
    1cec: 41 5c                        	popq	%r12
    1cee: 41 5d                        	popq	%r13
    1cf0: 41 5e                        	popq	%r14
    1cf2: 41 5f                        	popq	%r15
    1cf4: c3                           	retq
    1cf5: 66 66 2e 0f 1f 84 00 00 00 00 00     	nopw	%cs:(%rax,%rax)

0000000000001d00 __libc_csu_fini:
    1d00: f3 0f 1e fa                  	endbr64
    1d04: c3                           	retq

Disassembly of section .fini:

0000000000001d08 _fini:
    1d08: f3 0f 1e fa                  	endbr64
    1d0c: 48 83 ec 08                  	subq	$8, %rsp
    1d10: 48 83 c4 08                  	addq	$8, %rsp
    1d14: c3                           	retq
